
Output/canon_2019_loader.elf:     file format elf32-littlearm

Contents of section .isr_vector:
 8000000 00280020 6d050008 29060008 29060008  .(. m...)...)...
 8000010 29060008 29060008 29060008 00000000  )...)...).......
 8000020 00000000 00000000 00000000 29060008  ............)...
 8000030 29060008 00000000 29060008 29060008  ).......)...)...
 8000040 29060008 29060008 29060008 29060008  )...)...)...)...
 8000050 29060008 29060008 61050008 55050008  )...)...a...U...
 8000060 49050008 3d050008 31050008 29060008  I...=...1...)...
 8000070 29060008 29060008 29060008 29060008  )...)...)...)...
 8000080 29060008 29060008 29060008 a9030008  )...)...).......
 8000090 85030008 61030008 5f030008 05050008  ....a..._.......
 80000a0 29060008 29060008 29060008 29060008  )...)...)...)...
 80000b0 29060008 29060008 29060008 29060008  )...)...)...)...
 80000c0 29060008 29060008 29060008 29060008  )...)...)...)...
 80000d0 29060008 29060008 29060008 29060008  )...)...)...)...
 80000e0 d9040008 29060008 29060008 29060008  ....)...)...)...
 80000f0 29060008 29060008 29060008 29060008  )...)...)...)...
 8000100 29060008 29060008 29060008 29060008  )...)...)...)...
 8000110 29060008 29060008 29060008 29060008  )...)...)...)...
 8000120 29060008 29060008 29060008 29060008  )...)...)...)...
 8000130 29060008 29060008 29060008 29060008  )...)...)...)...
 8000140 29060008 29060008 29060008 29060008  )...)...)...)...
 8000150 29060008 29060008 29060008 29060008  )...)...)...)...
 8000160 29060008 29060008 29060008 29060008  )...)...)...)...
 8000170 29060008 29060008 29060008 00000000  )...)...).......
 8000180 29060008 29060008 29060008 29060008  )...)...)...)...
 8000190 29060008 29060008 29060008 29060008  )...)...)...)...
 80001a0 29060008 29060008 00000000           )...).......    
Contents of section .text:
 80001ac 1b4a936c 43f00203 2de9f041 9364194b  .J.lC...-..A.d.K
 80001bc 19689e68 1d6a5c6a 00220127 4ff0030e  .h.h.j\j.".'O...
 80001cc 4ff00f0c 07fa02f3 034216d0 53000efa  O........B..S...
 80001dc 03f821ea 080107fa 03f3072a 41ea0301  ..!........*A...
 80001ec 4fea8203 cabf203b 0cfa03f3 0cfa03f3  O..... ;........
 80001fc 46ea0806 d4bf9d43 9c430132 102ae1d1  F......C.C.2.*..
 800020c 044b1960 9e601d62 5c62bde8 f08100bf  .K.`.`.b\b......
 800021c 00100240 00040048 00010b7b 00f18040  ...@...H...{...@
 800022c 00f5cb40 dbb230b5 4360cd7a 8b7a4a7a  ...@..0.C`.z.zJz
 800023c 0c7a1b04 43ea0563 234343ea 0223c360  .z..C..c#CC..#.`
 800024c cd798b79 4a790c79 1b0443ea 05632343  .y.yJy.y..C..c#C
 800025c 43ea0223 83600a68 002ab6bf d3005305  C..#.`.h.*....S.
 800026c 43f00403 520048bf 43f00203 43f00103  C...R.H.C...C...
 800027c 03600a4b 1a680132 1a601a68 3f2ac4bf  .`.K.h.2.`.h?*..
 800028c 00221a60 1a68064b 1b689a42 01bf054a  .".`.h.K.h.B...J
 800029c 536923f0 01035361 30bd00bf 04080020  Si#...Sa0...... 
 80002ac 08080020 00640040 410746bf c30843f0  ... .d.@A.F...C.
 80002bc 0043430d 820748bf 43f08043 18467047  .CC...H.C..C.FpG
 80002cc 7fb50446 0068104d fff7eeff 6368a668  ...F.h.M....ch.h
 80002dc e1682a68 0d4c0291 cde90006 03f00f03  .h*h.L..........
 80002ec 8df80c30 04ab04eb 021413e9 0f0084e8  ...0............
 80002fc 0f002b68 01332b60 2b683f2b c4bf0023  ..+h.3+`+h?+...#
 800030c 2b6004b0 70bd00bf 00080020 00000020  +`..p...... ... 
 800031c 30b5cb0f c50f9d42 20f06044 21f06042  0......B .`D!.`B
 800032c 0ad005b1 a40c03b1 920c9442 02d034bf  ...........B..4.
 800033c 01230023 184630bd 944205d1 c1f38073  .#.#.F0..B.....s
 800034c c0f38070 9842f5d1 94422cbf 00230123  ...p.B...B,..#.#
 800035c f0e77047 10b5064c 18232361 23699b07  ..pG...L.##a#i..
 800036c 04d00448 fff7acff 20232361 10bd00bf  ...H.... ##a....
 800037c 00640040 c0650040 10b5064c 1823e360  .d.@.e.@...L.#.`
 800038c e3689b07 04d00448 fff79aff 2023e360  .h.....H.... #.`
 800039c 10bd00bf 00640040 b0650040 484b1a68  .....d.@.e.@HK.h
 80003ac 484b2de9 f04103eb 02130fcb 86b002ae  HK-..A..........
 80003bc 86e80f00 444b9a68 02f0e052 b2f1e05f  ....DK.h...R..._
 80003cc 19d09a68 c2f38062 8df80420 9a689b68  ...h...b... .h.h
 80003dc c2f3c062 c3f30073 8df80520 8df80630  ...b...s... ...0
 80003ec 0024394d aa685101 26d534b1 31460020  .$9M.hQ.&.4.1F. 
 80003fc fff712ff 1de00124 f3e79df8 0520029c  .......$..... ..
 800040c 42b9d5f8 9001fff7 4fff0146 2046fff7  B.......O..F F..
 800041c 7fff70b1 9df80630 002be7d1 2a4bd3f8  ..p....0.+..*K..
 800042c a001fff7 41ff0146 2046fff7 71ff0028  ....A..F F..q..(
 800043c dcd106b0 bde8f081 aa681201 1bd514b1  .........h......
 800044c 31460120 d4e7029f 0df10408 012c0ed0  1F. .........,..
 800045c 14f80830 5bb904f1 18031b01 e858fff7  ...0[........X..
 800046c 23ff0146 3846fff7 53ff0028 e1d00134  #..F8F..S..(...4
 800047c 032cebd1 e4e7aa68 d300dad5 14b13146  .,.....h......1F
 800048c 0220b5e7 9df80420 029c4ab9 d5f88001  . ..... ..J.....
 800049c fff70aff 01462046 fff73aff 0028c8d0  .....F F..:..(..
 80004ac 9df80530 002bead1 074bd3f8 9001fff7  ...0.+...K......
 80004bc fbfe0146 2046fff7 2bff0028 dfd1b8e7  ...F F..+..(....
 80004cc 04080020 00040020 00640040 094970b5  ... ... .d.@.Ip.
 80004dc 00220a23 01250c46 0e6805fa 03f00642  .".#.%.F.h.....B
 80004ec 03d04e69 304218bf 02430133 102b6261  ..Ni0B...C.3.+ba
 80004fc f2d170bd 00040140 094970b5 00220523  ..p....@.Ip..".#
 800050c 01250c46 0e6805fa 03f00642 03d04e69  .%.F.h.....B..Ni
 800051c 304218bf 02430133 0a2b6261 f2d170bd  0B...C.3.+ba..p.
 800052c 00040140 014b1022 5a617047 00040140  ...@.K."ZapG...@
 800053c 014b0822 5a617047 00040140 014b0422  .K."ZapG...@.K."
 800054c 5a617047 00040140 014b0222 5a617047  ZapG...@.K."ZapG
 800055c 00040140 014b0122 5a617047 00040140  ...@.K."ZapG...@
 800056c 08b5254a 254b2649 8b423dd3 254b264a  ..%J%K&I.B=.%K&J
 800057c 00219342 3dd32549 d1f88830 43f47003  .!.B=.%I...0C.p.
 800058c c1f88830 224b1a68 002042f4 80721a60  ...0"K.h. B..r.`
 800059c 98601a68 22f08672 22f48032 1a609861  .`.h"..r"..2.`.a
 80005ac 9a6d1c48 42f08052 9a650268 42f4c062  .m.HB..R.e.hB..b
 80005bc 02609a68 9a609a68 42f46052 9a609a68  .`.h.`.hB.`R.`.h
 80005cc 42f4e062 9a6003f5 805340f2 02721a60  B..b.`...S@..r.`
 80005dc 4ff00063 8b604ff6 ff70fff7 e1fd0e4b  O..c.`O..p.....K
 80005ec 4ff6ff72 9a61fee7 52f8040b 43f8040b  O..r.a..R...C...
 80005fc bae743f8 041bbce7 2c060008 00000020  ..C.....,...... 
 800060c 00000020 00000020 0c080020 00ed00e0  ... ... ... ....
 800061c 00100240 00700040 00040048 fee7      ...@.p.@...H..  
Contents of section .comment:
 0000 4743433a 20284172 63682052 65706f73  GCC: (Arch Repos
 0010 69746f72 79292038 2e332e30 00        itory) 8.3.0.   
Contents of section .ARM.attributes:
 0000 41310000 00616561 62690001 27000000  A1...aeabi..'...
 0010 0537452d 4d00060d 074d0902 0a061204  .7E-M....M......
 0020 14011501 17031801 1a011b01 1c011e04  ................
 0030 2201                                 ".              

Disassembly of section .isr_vector:

08000000 <_stext>:
 8000000:	20002800 	andcs	r2, r0, r0, lsl #16
 8000004:	0800056d 	stmdaeq	r0, {r0, r2, r3, r5, r6, r8, sl}
 8000008:	08000629 	stmdaeq	r0, {r0, r3, r5, r9, sl}
 800000c:	08000629 	stmdaeq	r0, {r0, r3, r5, r9, sl}
 8000010:	08000629 	stmdaeq	r0, {r0, r3, r5, r9, sl}
 8000014:	08000629 	stmdaeq	r0, {r0, r3, r5, r9, sl}
 8000018:	08000629 	stmdaeq	r0, {r0, r3, r5, r9, sl}
	...
 800002c:	08000629 	stmdaeq	r0, {r0, r3, r5, r9, sl}
 8000030:	08000629 	stmdaeq	r0, {r0, r3, r5, r9, sl}
 8000034:	00000000 	andeq	r0, r0, r0
 8000038:	08000629 	stmdaeq	r0, {r0, r3, r5, r9, sl}
 800003c:	08000629 	stmdaeq	r0, {r0, r3, r5, r9, sl}
 8000040:	08000629 	stmdaeq	r0, {r0, r3, r5, r9, sl}
 8000044:	08000629 	stmdaeq	r0, {r0, r3, r5, r9, sl}
 8000048:	08000629 	stmdaeq	r0, {r0, r3, r5, r9, sl}
 800004c:	08000629 	stmdaeq	r0, {r0, r3, r5, r9, sl}
 8000050:	08000629 	stmdaeq	r0, {r0, r3, r5, r9, sl}
 8000054:	08000629 	stmdaeq	r0, {r0, r3, r5, r9, sl}
 8000058:	08000561 	stmdaeq	r0, {r0, r5, r6, r8, sl}
 800005c:	08000555 	stmdaeq	r0, {r0, r2, r4, r6, r8, sl}
 8000060:	08000549 	stmdaeq	r0, {r0, r3, r6, r8, sl}
 8000064:	0800053d 	stmdaeq	r0, {r0, r2, r3, r4, r5, r8, sl}
 8000068:	08000531 	stmdaeq	r0, {r0, r4, r5, r8, sl}
 800006c:	08000629 	stmdaeq	r0, {r0, r3, r5, r9, sl}
 8000070:	08000629 	stmdaeq	r0, {r0, r3, r5, r9, sl}
 8000074:	08000629 	stmdaeq	r0, {r0, r3, r5, r9, sl}
 8000078:	08000629 	stmdaeq	r0, {r0, r3, r5, r9, sl}
 800007c:	08000629 	stmdaeq	r0, {r0, r3, r5, r9, sl}
 8000080:	08000629 	stmdaeq	r0, {r0, r3, r5, r9, sl}
 8000084:	08000629 	stmdaeq	r0, {r0, r3, r5, r9, sl}
 8000088:	08000629 	stmdaeq	r0, {r0, r3, r5, r9, sl}
 800008c:	080003a9 	stmdaeq	r0, {r0, r3, r5, r7, r8, r9}
 8000090:	08000385 	stmdaeq	r0, {r0, r2, r7, r8, r9}
 8000094:	08000361 	stmdaeq	r0, {r0, r5, r6, r8, r9}
 8000098:	0800035f 	stmdaeq	r0, {r0, r1, r2, r3, r4, r6, r8, r9}
 800009c:	08000505 	stmdaeq	r0, {r0, r2, r8, sl}
 80000a0:	08000629 	stmdaeq	r0, {r0, r3, r5, r9, sl}
 80000a4:	08000629 	stmdaeq	r0, {r0, r3, r5, r9, sl}
 80000a8:	08000629 	stmdaeq	r0, {r0, r3, r5, r9, sl}
 80000ac:	08000629 	stmdaeq	r0, {r0, r3, r5, r9, sl}
 80000b0:	08000629 	stmdaeq	r0, {r0, r3, r5, r9, sl}
 80000b4:	08000629 	stmdaeq	r0, {r0, r3, r5, r9, sl}
 80000b8:	08000629 	stmdaeq	r0, {r0, r3, r5, r9, sl}
 80000bc:	08000629 	stmdaeq	r0, {r0, r3, r5, r9, sl}
 80000c0:	08000629 	stmdaeq	r0, {r0, r3, r5, r9, sl}
 80000c4:	08000629 	stmdaeq	r0, {r0, r3, r5, r9, sl}
 80000c8:	08000629 	stmdaeq	r0, {r0, r3, r5, r9, sl}
 80000cc:	08000629 	stmdaeq	r0, {r0, r3, r5, r9, sl}
 80000d0:	08000629 	stmdaeq	r0, {r0, r3, r5, r9, sl}
 80000d4:	08000629 	stmdaeq	r0, {r0, r3, r5, r9, sl}
 80000d8:	08000629 	stmdaeq	r0, {r0, r3, r5, r9, sl}
 80000dc:	08000629 	stmdaeq	r0, {r0, r3, r5, r9, sl}
 80000e0:	080004d9 	stmdaeq	r0, {r0, r3, r4, r6, r7, sl}
 80000e4:	08000629 	stmdaeq	r0, {r0, r3, r5, r9, sl}
 80000e8:	08000629 	stmdaeq	r0, {r0, r3, r5, r9, sl}
 80000ec:	08000629 	stmdaeq	r0, {r0, r3, r5, r9, sl}
 80000f0:	08000629 	stmdaeq	r0, {r0, r3, r5, r9, sl}
 80000f4:	08000629 	stmdaeq	r0, {r0, r3, r5, r9, sl}
 80000f8:	08000629 	stmdaeq	r0, {r0, r3, r5, r9, sl}
 80000fc:	08000629 	stmdaeq	r0, {r0, r3, r5, r9, sl}
 8000100:	08000629 	stmdaeq	r0, {r0, r3, r5, r9, sl}
 8000104:	08000629 	stmdaeq	r0, {r0, r3, r5, r9, sl}
 8000108:	08000629 	stmdaeq	r0, {r0, r3, r5, r9, sl}
 800010c:	08000629 	stmdaeq	r0, {r0, r3, r5, r9, sl}
 8000110:	08000629 	stmdaeq	r0, {r0, r3, r5, r9, sl}
 8000114:	08000629 	stmdaeq	r0, {r0, r3, r5, r9, sl}
 8000118:	08000629 	stmdaeq	r0, {r0, r3, r5, r9, sl}
 800011c:	08000629 	stmdaeq	r0, {r0, r3, r5, r9, sl}
 8000120:	08000629 	stmdaeq	r0, {r0, r3, r5, r9, sl}
 8000124:	08000629 	stmdaeq	r0, {r0, r3, r5, r9, sl}
 8000128:	08000629 	stmdaeq	r0, {r0, r3, r5, r9, sl}
 800012c:	08000629 	stmdaeq	r0, {r0, r3, r5, r9, sl}
 8000130:	08000629 	stmdaeq	r0, {r0, r3, r5, r9, sl}
 8000134:	08000629 	stmdaeq	r0, {r0, r3, r5, r9, sl}
 8000138:	08000629 	stmdaeq	r0, {r0, r3, r5, r9, sl}
 800013c:	08000629 	stmdaeq	r0, {r0, r3, r5, r9, sl}
 8000140:	08000629 	stmdaeq	r0, {r0, r3, r5, r9, sl}
 8000144:	08000629 	stmdaeq	r0, {r0, r3, r5, r9, sl}
 8000148:	08000629 	stmdaeq	r0, {r0, r3, r5, r9, sl}
 800014c:	08000629 	stmdaeq	r0, {r0, r3, r5, r9, sl}
 8000150:	08000629 	stmdaeq	r0, {r0, r3, r5, r9, sl}
 8000154:	08000629 	stmdaeq	r0, {r0, r3, r5, r9, sl}
 8000158:	08000629 	stmdaeq	r0, {r0, r3, r5, r9, sl}
 800015c:	08000629 	stmdaeq	r0, {r0, r3, r5, r9, sl}
 8000160:	08000629 	stmdaeq	r0, {r0, r3, r5, r9, sl}
 8000164:	08000629 	stmdaeq	r0, {r0, r3, r5, r9, sl}
 8000168:	08000629 	stmdaeq	r0, {r0, r3, r5, r9, sl}
 800016c:	08000629 	stmdaeq	r0, {r0, r3, r5, r9, sl}
 8000170:	08000629 	stmdaeq	r0, {r0, r3, r5, r9, sl}
 8000174:	08000629 	stmdaeq	r0, {r0, r3, r5, r9, sl}
 8000178:	08000629 	stmdaeq	r0, {r0, r3, r5, r9, sl}
 800017c:	00000000 	andeq	r0, r0, r0
 8000180:	08000629 	stmdaeq	r0, {r0, r3, r5, r9, sl}
 8000184:	08000629 	stmdaeq	r0, {r0, r3, r5, r9, sl}
 8000188:	08000629 	stmdaeq	r0, {r0, r3, r5, r9, sl}
 800018c:	08000629 	stmdaeq	r0, {r0, r3, r5, r9, sl}
 8000190:	08000629 	stmdaeq	r0, {r0, r3, r5, r9, sl}
 8000194:	08000629 	stmdaeq	r0, {r0, r3, r5, r9, sl}
 8000198:	08000629 	stmdaeq	r0, {r0, r3, r5, r9, sl}
 800019c:	08000629 	stmdaeq	r0, {r0, r3, r5, r9, sl}
 80001a0:	08000629 	stmdaeq	r0, {r0, r3, r5, r9, sl}
 80001a4:	08000629 	stmdaeq	r0, {r0, r3, r5, r9, sl}
 80001a8:	00000000 	andeq	r0, r0, r0

Disassembly of section .text:

080001ac <mcual_gpio_init.constprop.0>:
 80001ac:	4a1b      	ldr	r2, [pc, #108]	; (800021c <mcual_gpio_init.constprop.0+0x70>)
 80001ae:	6c93      	ldr	r3, [r2, #72]	; 0x48
 80001b0:	f043 0302 	orr.w	r3, r3, #2
 80001b4:	e92d 41f0 	stmdb	sp!, {r4, r5, r6, r7, r8, lr}
 80001b8:	6493      	str	r3, [r2, #72]	; 0x48
 80001ba:	4b19      	ldr	r3, [pc, #100]	; (8000220 <mcual_gpio_init.constprop.0+0x74>)
 80001bc:	6819      	ldr	r1, [r3, #0]
 80001be:	689e      	ldr	r6, [r3, #8]
 80001c0:	6a1d      	ldr	r5, [r3, #32]
 80001c2:	6a5c      	ldr	r4, [r3, #36]	; 0x24
 80001c4:	2200      	movs	r2, #0
 80001c6:	2701      	movs	r7, #1
 80001c8:	f04f 0e03 	mov.w	lr, #3
 80001cc:	f04f 0c0f 	mov.w	ip, #15
 80001d0:	fa07 f302 	lsl.w	r3, r7, r2
 80001d4:	4203      	tst	r3, r0
 80001d6:	d016      	beq.n	8000206 <mcual_gpio_init.constprop.0+0x5a>
 80001d8:	0053      	lsls	r3, r2, #1
 80001da:	fa0e f803 	lsl.w	r8, lr, r3
 80001de:	ea21 0108 	bic.w	r1, r1, r8
 80001e2:	fa07 f303 	lsl.w	r3, r7, r3
 80001e6:	2a07      	cmp	r2, #7
 80001e8:	ea41 0103 	orr.w	r1, r1, r3
 80001ec:	ea4f 0382 	mov.w	r3, r2, lsl #2
 80001f0:	bfca      	itet	gt
 80001f2:	3b20      	subgt	r3, #32
 80001f4:	fa0c f303 	lslle.w	r3, ip, r3
 80001f8:	fa0c f303 	lslgt.w	r3, ip, r3
 80001fc:	ea46 0608 	orr.w	r6, r6, r8
 8000200:	bfd4      	ite	le
 8000202:	439d      	bicle	r5, r3
 8000204:	439c      	bicgt	r4, r3
 8000206:	3201      	adds	r2, #1
 8000208:	2a10      	cmp	r2, #16
 800020a:	d1e1      	bne.n	80001d0 <mcual_gpio_init.constprop.0+0x24>
 800020c:	4b04      	ldr	r3, [pc, #16]	; (8000220 <mcual_gpio_init.constprop.0+0x74>)
 800020e:	6019      	str	r1, [r3, #0]
 8000210:	609e      	str	r6, [r3, #8]
 8000212:	621d      	str	r5, [r3, #32]
 8000214:	625c      	str	r4, [r3, #36]	; 0x24
 8000216:	e8bd 81f0 	ldmia.w	sp!, {r4, r5, r6, r7, r8, pc}
 800021a:	bf00      	nop
 800021c:	40021000 	andmi	r1, r2, r0
 8000220:	48000400 	stmdami	r0, {sl}

08000224 <mcual_can_add_in_mailbox>:
 8000224:	0100      	lsls	r0, r0, #4
 8000226:	7b0b      	ldrb	r3, [r1, #12]
 8000228:	f100 4080 	add.w	r0, r0, #1073741824	; 0x40000000
 800022c:	f500 40cb 	add.w	r0, r0, #25984	; 0x6580
 8000230:	b2db      	uxtb	r3, r3
 8000232:	b530      	push	{r4, r5, lr}
 8000234:	6043      	str	r3, [r0, #4]
 8000236:	7acd      	ldrb	r5, [r1, #11]
 8000238:	7a8b      	ldrb	r3, [r1, #10]
 800023a:	7a4a      	ldrb	r2, [r1, #9]
 800023c:	7a0c      	ldrb	r4, [r1, #8]
 800023e:	041b      	lsls	r3, r3, #16
 8000240:	ea43 6305 	orr.w	r3, r3, r5, lsl #24
 8000244:	4323      	orrs	r3, r4
 8000246:	ea43 2302 	orr.w	r3, r3, r2, lsl #8
 800024a:	60c3      	str	r3, [r0, #12]
 800024c:	79cd      	ldrb	r5, [r1, #7]
 800024e:	798b      	ldrb	r3, [r1, #6]
 8000250:	794a      	ldrb	r2, [r1, #5]
 8000252:	790c      	ldrb	r4, [r1, #4]
 8000254:	041b      	lsls	r3, r3, #16
 8000256:	ea43 6305 	orr.w	r3, r3, r5, lsl #24
 800025a:	4323      	orrs	r3, r4
 800025c:	ea43 2302 	orr.w	r3, r3, r2, lsl #8
 8000260:	6083      	str	r3, [r0, #8]
 8000262:	680a      	ldr	r2, [r1, #0]
 8000264:	2a00      	cmp	r2, #0
 8000266:	bfb6      	itet	lt
 8000268:	00d3      	lsllt	r3, r2, #3
 800026a:	0553      	lslge	r3, r2, #21
 800026c:	f043 0304 	orrlt.w	r3, r3, #4
 8000270:	0052      	lsls	r2, r2, #1
 8000272:	bf48      	it	mi
 8000274:	f043 0302 	orrmi.w	r3, r3, #2
 8000278:	f043 0301 	orr.w	r3, r3, #1
 800027c:	6003      	str	r3, [r0, #0]
 800027e:	4b0a      	ldr	r3, [pc, #40]	; (80002a8 <mcual_can_add_in_mailbox+0x84>)
 8000280:	681a      	ldr	r2, [r3, #0]
 8000282:	3201      	adds	r2, #1
 8000284:	601a      	str	r2, [r3, #0]
 8000286:	681a      	ldr	r2, [r3, #0]
 8000288:	2a3f      	cmp	r2, #63	; 0x3f
 800028a:	bfc4      	itt	gt
 800028c:	2200      	movgt	r2, #0
 800028e:	601a      	strgt	r2, [r3, #0]
 8000290:	681a      	ldr	r2, [r3, #0]
 8000292:	4b06      	ldr	r3, [pc, #24]	; (80002ac <mcual_can_add_in_mailbox+0x88>)
 8000294:	681b      	ldr	r3, [r3, #0]
 8000296:	429a      	cmp	r2, r3
 8000298:	bf01      	itttt	eq
 800029a:	4a05      	ldreq	r2, [pc, #20]	; (80002b0 <mcual_can_add_in_mailbox+0x8c>)
 800029c:	6953      	ldreq	r3, [r2, #20]
 800029e:	f023 0301 	biceq.w	r3, r3, #1
 80002a2:	6153      	streq	r3, [r2, #20]
 80002a4:	bd30      	pop	{r4, r5, pc}
 80002a6:	bf00      	nop
 80002a8:	20000804 	andcs	r0, r0, r4, lsl #16
 80002ac:	20000808 	andcs	r0, r0, r8, lsl #16
 80002b0:	40006400 	andmi	r6, r0, r0, lsl #8

080002b4 <convertFrameIDRegisterToCanard>:
 80002b4:	0741      	lsls	r1, r0, #29
 80002b6:	bf46      	itte	mi
 80002b8:	08c3      	lsrmi	r3, r0, #3
 80002ba:	f043 4300 	orrmi.w	r3, r3, #2147483648	; 0x80000000
 80002be:	0d43      	lsrpl	r3, r0, #21
 80002c0:	0782      	lsls	r2, r0, #30
 80002c2:	bf48      	it	mi
 80002c4:	f043 4380 	orrmi.w	r3, r3, #1073741824	; 0x40000000
 80002c8:	4618      	mov	r0, r3
 80002ca:	4770      	bx	lr

080002cc <mcual_can_rcev_frame>:
 80002cc:	b57f      	push	{r0, r1, r2, r3, r4, r5, r6, lr}
 80002ce:	4604      	mov	r4, r0
 80002d0:	6800      	ldr	r0, [r0, #0]
 80002d2:	4d10      	ldr	r5, [pc, #64]	; (8000314 <mcual_can_rcev_frame+0x48>)
 80002d4:	f7ff ffee 	bl	80002b4 <convertFrameIDRegisterToCanard>
 80002d8:	6863      	ldr	r3, [r4, #4]
 80002da:	68a6      	ldr	r6, [r4, #8]
 80002dc:	68e1      	ldr	r1, [r4, #12]
 80002de:	682a      	ldr	r2, [r5, #0]
 80002e0:	4c0d      	ldr	r4, [pc, #52]	; (8000318 <mcual_can_rcev_frame+0x4c>)
 80002e2:	9102      	str	r1, [sp, #8]
 80002e4:	e9cd 0600 	strd	r0, r6, [sp]
 80002e8:	f003 030f 	and.w	r3, r3, #15
 80002ec:	f88d 300c 	strb.w	r3, [sp, #12]
 80002f0:	ab04      	add	r3, sp, #16
 80002f2:	eb04 1402 	add.w	r4, r4, r2, lsl #4
 80002f6:	e913 000f 	ldmdb	r3, {r0, r1, r2, r3}
 80002fa:	e884 000f 	stmia.w	r4, {r0, r1, r2, r3}
 80002fe:	682b      	ldr	r3, [r5, #0]
 8000300:	3301      	adds	r3, #1
 8000302:	602b      	str	r3, [r5, #0]
 8000304:	682b      	ldr	r3, [r5, #0]
 8000306:	2b3f      	cmp	r3, #63	; 0x3f
 8000308:	bfc4      	itt	gt
 800030a:	2300      	movgt	r3, #0
 800030c:	602b      	strgt	r3, [r5, #0]
 800030e:	b004      	add	sp, #16
 8000310:	bd70      	pop	{r4, r5, r6, pc}
 8000312:	bf00      	nop
 8000314:	20000800 	andcs	r0, r0, r0, lsl #16
 8000318:	20000000 	andcs	r0, r0, r0

0800031c <isFramePriorityHigher>:
 800031c:	b530      	push	{r4, r5, lr}
 800031e:	0fcb      	lsrs	r3, r1, #31
 8000320:	0fc5      	lsrs	r5, r0, #31
 8000322:	429d      	cmp	r5, r3
 8000324:	f020 4460 	bic.w	r4, r0, #3758096384	; 0xe0000000
 8000328:	f021 4260 	bic.w	r2, r1, #3758096384	; 0xe0000000
 800032c:	d00a      	beq.n	8000344 <isFramePriorityHigher+0x28>
 800032e:	b105      	cbz	r5, 8000332 <isFramePriorityHigher+0x16>
 8000330:	0ca4      	lsrs	r4, r4, #18
 8000332:	b103      	cbz	r3, 8000336 <isFramePriorityHigher+0x1a>
 8000334:	0c92      	lsrs	r2, r2, #18
 8000336:	4294      	cmp	r4, r2
 8000338:	d002      	beq.n	8000340 <isFramePriorityHigher+0x24>
 800033a:	bf34      	ite	cc
 800033c:	2301      	movcc	r3, #1
 800033e:	2300      	movcs	r3, #0
 8000340:	4618      	mov	r0, r3
 8000342:	bd30      	pop	{r4, r5, pc}
 8000344:	4294      	cmp	r4, r2
 8000346:	d105      	bne.n	8000354 <isFramePriorityHigher+0x38>
 8000348:	f3c1 7380 	ubfx	r3, r1, #30, #1
 800034c:	f3c0 7080 	ubfx	r0, r0, #30, #1
 8000350:	4298      	cmp	r0, r3
 8000352:	d1f5      	bne.n	8000340 <isFramePriorityHigher+0x24>
 8000354:	4294      	cmp	r4, r2
 8000356:	bf2c      	ite	cs
 8000358:	2300      	movcs	r3, #0
 800035a:	2301      	movcc	r3, #1
 800035c:	e7f0      	b.n	8000340 <isFramePriorityHigher+0x24>

0800035e <CAN1_SCE_IRQHandler>:
 800035e:	4770      	bx	lr

08000360 <CAN1_RX1_IRQHandler>:
 8000360:	b510      	push	{r4, lr}
 8000362:	4c06      	ldr	r4, [pc, #24]	; (800037c <CAN1_RX1_IRQHandler+0x1c>)
 8000364:	2318      	movs	r3, #24
 8000366:	6123      	str	r3, [r4, #16]
 8000368:	6923      	ldr	r3, [r4, #16]
 800036a:	079b      	lsls	r3, r3, #30
 800036c:	d004      	beq.n	8000378 <CAN1_RX1_IRQHandler+0x18>
 800036e:	4804      	ldr	r0, [pc, #16]	; (8000380 <CAN1_RX1_IRQHandler+0x20>)
 8000370:	f7ff ffac 	bl	80002cc <mcual_can_rcev_frame>
 8000374:	2320      	movs	r3, #32
 8000376:	6123      	str	r3, [r4, #16]
 8000378:	bd10      	pop	{r4, pc}
 800037a:	bf00      	nop
 800037c:	40006400 	andmi	r6, r0, r0, lsl #8
 8000380:	400065c0 	andmi	r6, r0, r0, asr #11

08000384 <CAN1_RX0_IRQHandler>:
 8000384:	b510      	push	{r4, lr}
 8000386:	4c06      	ldr	r4, [pc, #24]	; (80003a0 <CAN1_RX0_IRQHandler+0x1c>)
 8000388:	2318      	movs	r3, #24
 800038a:	60e3      	str	r3, [r4, #12]
 800038c:	68e3      	ldr	r3, [r4, #12]
 800038e:	079b      	lsls	r3, r3, #30
 8000390:	d004      	beq.n	800039c <CAN1_RX0_IRQHandler+0x18>
 8000392:	4804      	ldr	r0, [pc, #16]	; (80003a4 <CAN1_RX0_IRQHandler+0x20>)
 8000394:	f7ff ff9a 	bl	80002cc <mcual_can_rcev_frame>
 8000398:	2320      	movs	r3, #32
 800039a:	60e3      	str	r3, [r4, #12]
 800039c:	bd10      	pop	{r4, pc}
 800039e:	bf00      	nop
 80003a0:	40006400 	andmi	r6, r0, r0, lsl #8
 80003a4:	400065b0 			; <UNDEFINED> instruction: 0x400065b0

080003a8 <CAN1_TX_IRQHandler>:
 80003a8:	4b48      	ldr	r3, [pc, #288]	; (80004cc <CAN1_TX_IRQHandler+0x124>)
 80003aa:	681a      	ldr	r2, [r3, #0]
 80003ac:	4b48      	ldr	r3, [pc, #288]	; (80004d0 <CAN1_TX_IRQHandler+0x128>)
 80003ae:	e92d 41f0 	stmdb	sp!, {r4, r5, r6, r7, r8, lr}
 80003b2:	eb03 1302 	add.w	r3, r3, r2, lsl #4
 80003b6:	cb0f      	ldmia	r3, {r0, r1, r2, r3}
 80003b8:	b086      	sub	sp, #24
 80003ba:	ae02      	add	r6, sp, #8
 80003bc:	e886 000f 	stmia.w	r6, {r0, r1, r2, r3}
 80003c0:	4b44      	ldr	r3, [pc, #272]	; (80004d4 <CAN1_TX_IRQHandler+0x12c>)
 80003c2:	689a      	ldr	r2, [r3, #8]
 80003c4:	f002 52e0 	and.w	r2, r2, #469762048	; 0x1c000000
 80003c8:	f1b2 5fe0 	cmp.w	r2, #469762048	; 0x1c000000
 80003cc:	d019      	beq.n	8000402 <CAN1_TX_IRQHandler+0x5a>
 80003ce:	689a      	ldr	r2, [r3, #8]
 80003d0:	f3c2 6280 	ubfx	r2, r2, #26, #1
 80003d4:	f88d 2004 	strb.w	r2, [sp, #4]
 80003d8:	689a      	ldr	r2, [r3, #8]
 80003da:	689b      	ldr	r3, [r3, #8]
 80003dc:	f3c2 62c0 	ubfx	r2, r2, #27, #1
 80003e0:	f3c3 7300 	ubfx	r3, r3, #28, #1
 80003e4:	f88d 2005 	strb.w	r2, [sp, #5]
 80003e8:	f88d 3006 	strb.w	r3, [sp, #6]
 80003ec:	2400      	movs	r4, #0
 80003ee:	4d39      	ldr	r5, [pc, #228]	; (80004d4 <CAN1_TX_IRQHandler+0x12c>)
 80003f0:	68aa      	ldr	r2, [r5, #8]
 80003f2:	0151      	lsls	r1, r2, #5
 80003f4:	d526      	bpl.n	8000444 <CAN1_TX_IRQHandler+0x9c>
 80003f6:	b134      	cbz	r4, 8000406 <CAN1_TX_IRQHandler+0x5e>
 80003f8:	4631      	mov	r1, r6
 80003fa:	2000      	movs	r0, #0
 80003fc:	f7ff ff12 	bl	8000224 <mcual_can_add_in_mailbox>
 8000400:	e01d      	b.n	800043e <CAN1_TX_IRQHandler+0x96>
 8000402:	2401      	movs	r4, #1
 8000404:	e7f3      	b.n	80003ee <CAN1_TX_IRQHandler+0x46>
 8000406:	f89d 2005 	ldrb.w	r2, [sp, #5]
 800040a:	9c02      	ldr	r4, [sp, #8]
 800040c:	b942      	cbnz	r2, 8000420 <CAN1_TX_IRQHandler+0x78>
 800040e:	f8d5 0190 	ldr.w	r0, [r5, #400]	; 0x190
 8000412:	f7ff ff4f 	bl	80002b4 <convertFrameIDRegisterToCanard>
 8000416:	4601      	mov	r1, r0
 8000418:	4620      	mov	r0, r4
 800041a:	f7ff ff7f 	bl	800031c <isFramePriorityHigher>
 800041e:	b170      	cbz	r0, 800043e <CAN1_TX_IRQHandler+0x96>
 8000420:	f89d 3006 	ldrb.w	r3, [sp, #6]
 8000424:	2b00      	cmp	r3, #0
 8000426:	d1e7      	bne.n	80003f8 <CAN1_TX_IRQHandler+0x50>
 8000428:	4b2a      	ldr	r3, [pc, #168]	; (80004d4 <CAN1_TX_IRQHandler+0x12c>)
 800042a:	f8d3 01a0 	ldr.w	r0, [r3, #416]	; 0x1a0
 800042e:	f7ff ff41 	bl	80002b4 <convertFrameIDRegisterToCanard>
 8000432:	4601      	mov	r1, r0
 8000434:	4620      	mov	r0, r4
 8000436:	f7ff ff71 	bl	800031c <isFramePriorityHigher>
 800043a:	2800      	cmp	r0, #0
 800043c:	d1dc      	bne.n	80003f8 <CAN1_TX_IRQHandler+0x50>
 800043e:	b006      	add	sp, #24
 8000440:	e8bd 81f0 	ldmia.w	sp!, {r4, r5, r6, r7, r8, pc}
 8000444:	68aa      	ldr	r2, [r5, #8]
 8000446:	0112      	lsls	r2, r2, #4
 8000448:	d51b      	bpl.n	8000482 <CAN1_TX_IRQHandler+0xda>
 800044a:	b114      	cbz	r4, 8000452 <CAN1_TX_IRQHandler+0xaa>
 800044c:	4631      	mov	r1, r6
 800044e:	2001      	movs	r0, #1
 8000450:	e7d4      	b.n	80003fc <CAN1_TX_IRQHandler+0x54>
 8000452:	9f02      	ldr	r7, [sp, #8]
 8000454:	f10d 0804 	add.w	r8, sp, #4
 8000458:	2c01      	cmp	r4, #1
 800045a:	d00e      	beq.n	800047a <CAN1_TX_IRQHandler+0xd2>
 800045c:	f814 3008 	ldrb.w	r3, [r4, r8]
 8000460:	b95b      	cbnz	r3, 800047a <CAN1_TX_IRQHandler+0xd2>
 8000462:	f104 0318 	add.w	r3, r4, #24
 8000466:	011b      	lsls	r3, r3, #4
 8000468:	58e8      	ldr	r0, [r5, r3]
 800046a:	f7ff ff23 	bl	80002b4 <convertFrameIDRegisterToCanard>
 800046e:	4601      	mov	r1, r0
 8000470:	4638      	mov	r0, r7
 8000472:	f7ff ff53 	bl	800031c <isFramePriorityHigher>
 8000476:	2800      	cmp	r0, #0
 8000478:	d0e1      	beq.n	800043e <CAN1_TX_IRQHandler+0x96>
 800047a:	3401      	adds	r4, #1
 800047c:	2c03      	cmp	r4, #3
 800047e:	d1eb      	bne.n	8000458 <CAN1_TX_IRQHandler+0xb0>
 8000480:	e7e4      	b.n	800044c <CAN1_TX_IRQHandler+0xa4>
 8000482:	68aa      	ldr	r2, [r5, #8]
 8000484:	00d3      	lsls	r3, r2, #3
 8000486:	d5da      	bpl.n	800043e <CAN1_TX_IRQHandler+0x96>
 8000488:	b114      	cbz	r4, 8000490 <CAN1_TX_IRQHandler+0xe8>
 800048a:	4631      	mov	r1, r6
 800048c:	2002      	movs	r0, #2
 800048e:	e7b5      	b.n	80003fc <CAN1_TX_IRQHandler+0x54>
 8000490:	f89d 2004 	ldrb.w	r2, [sp, #4]
 8000494:	9c02      	ldr	r4, [sp, #8]
 8000496:	b94a      	cbnz	r2, 80004ac <CAN1_TX_IRQHandler+0x104>
 8000498:	f8d5 0180 	ldr.w	r0, [r5, #384]	; 0x180
 800049c:	f7ff ff0a 	bl	80002b4 <convertFrameIDRegisterToCanard>
 80004a0:	4601      	mov	r1, r0
 80004a2:	4620      	mov	r0, r4
 80004a4:	f7ff ff3a 	bl	800031c <isFramePriorityHigher>
 80004a8:	2800      	cmp	r0, #0
 80004aa:	d0c8      	beq.n	800043e <CAN1_TX_IRQHandler+0x96>
 80004ac:	f89d 3005 	ldrb.w	r3, [sp, #5]
 80004b0:	2b00      	cmp	r3, #0
 80004b2:	d1ea      	bne.n	800048a <CAN1_TX_IRQHandler+0xe2>
 80004b4:	4b07      	ldr	r3, [pc, #28]	; (80004d4 <CAN1_TX_IRQHandler+0x12c>)
 80004b6:	f8d3 0190 	ldr.w	r0, [r3, #400]	; 0x190
 80004ba:	f7ff fefb 	bl	80002b4 <convertFrameIDRegisterToCanard>
 80004be:	4601      	mov	r1, r0
 80004c0:	4620      	mov	r0, r4
 80004c2:	f7ff ff2b 	bl	800031c <isFramePriorityHigher>
 80004c6:	2800      	cmp	r0, #0
 80004c8:	d1df      	bne.n	800048a <CAN1_TX_IRQHandler+0xe2>
 80004ca:	e7b8      	b.n	800043e <CAN1_TX_IRQHandler+0x96>
 80004cc:	20000804 	andcs	r0, r0, r4, lsl #16
 80004d0:	20000400 	andcs	r0, r0, r0, lsl #8
 80004d4:	40006400 	andmi	r6, r0, r0, lsl #8

080004d8 <EXTI15_10_IRQHandler>:
 80004d8:	4909      	ldr	r1, [pc, #36]	; (8000500 <EXTI15_10_IRQHandler+0x28>)
 80004da:	b570      	push	{r4, r5, r6, lr}
 80004dc:	2200      	movs	r2, #0
 80004de:	230a      	movs	r3, #10
 80004e0:	2501      	movs	r5, #1
 80004e2:	460c      	mov	r4, r1
 80004e4:	680e      	ldr	r6, [r1, #0]
 80004e6:	fa05 f003 	lsl.w	r0, r5, r3
 80004ea:	4206      	tst	r6, r0
 80004ec:	d003      	beq.n	80004f6 <EXTI15_10_IRQHandler+0x1e>
 80004ee:	694e      	ldr	r6, [r1, #20]
 80004f0:	4230      	tst	r0, r6
 80004f2:	bf18      	it	ne
 80004f4:	4302      	orrne	r2, r0
 80004f6:	3301      	adds	r3, #1
 80004f8:	2b10      	cmp	r3, #16
 80004fa:	6162      	str	r2, [r4, #20]
 80004fc:	d1f2      	bne.n	80004e4 <EXTI15_10_IRQHandler+0xc>
 80004fe:	bd70      	pop	{r4, r5, r6, pc}
 8000500:	40010400 	andmi	r0, r1, r0, lsl #8

08000504 <EXTI9_5_IRQHandler>:
 8000504:	4909      	ldr	r1, [pc, #36]	; (800052c <EXTI9_5_IRQHandler+0x28>)
 8000506:	b570      	push	{r4, r5, r6, lr}
 8000508:	2200      	movs	r2, #0
 800050a:	2305      	movs	r3, #5
 800050c:	2501      	movs	r5, #1
 800050e:	460c      	mov	r4, r1
 8000510:	680e      	ldr	r6, [r1, #0]
 8000512:	fa05 f003 	lsl.w	r0, r5, r3
 8000516:	4206      	tst	r6, r0
 8000518:	d003      	beq.n	8000522 <EXTI9_5_IRQHandler+0x1e>
 800051a:	694e      	ldr	r6, [r1, #20]
 800051c:	4230      	tst	r0, r6
 800051e:	bf18      	it	ne
 8000520:	4302      	orrne	r2, r0
 8000522:	3301      	adds	r3, #1
 8000524:	2b0a      	cmp	r3, #10
 8000526:	6162      	str	r2, [r4, #20]
 8000528:	d1f2      	bne.n	8000510 <EXTI9_5_IRQHandler+0xc>
 800052a:	bd70      	pop	{r4, r5, r6, pc}
 800052c:	40010400 	andmi	r0, r1, r0, lsl #8

08000530 <EXTI4_IRQHandler>:
 8000530:	4b01      	ldr	r3, [pc, #4]	; (8000538 <EXTI4_IRQHandler+0x8>)
 8000532:	2210      	movs	r2, #16
 8000534:	615a      	str	r2, [r3, #20]
 8000536:	4770      	bx	lr
 8000538:	40010400 	andmi	r0, r1, r0, lsl #8

0800053c <EXTI3_IRQHandler>:
 800053c:	4b01      	ldr	r3, [pc, #4]	; (8000544 <EXTI3_IRQHandler+0x8>)
 800053e:	2208      	movs	r2, #8
 8000540:	615a      	str	r2, [r3, #20]
 8000542:	4770      	bx	lr
 8000544:	40010400 	andmi	r0, r1, r0, lsl #8

08000548 <EXTI2_IRQHandler>:
 8000548:	4b01      	ldr	r3, [pc, #4]	; (8000550 <EXTI2_IRQHandler+0x8>)
 800054a:	2204      	movs	r2, #4
 800054c:	615a      	str	r2, [r3, #20]
 800054e:	4770      	bx	lr
 8000550:	40010400 	andmi	r0, r1, r0, lsl #8

08000554 <EXTI1_IRQHandler>:
 8000554:	4b01      	ldr	r3, [pc, #4]	; (800055c <EXTI1_IRQHandler+0x8>)
 8000556:	2202      	movs	r2, #2
 8000558:	615a      	str	r2, [r3, #20]
 800055a:	4770      	bx	lr
 800055c:	40010400 	andmi	r0, r1, r0, lsl #8

08000560 <EXTI0_IRQHandler>:
 8000560:	4b01      	ldr	r3, [pc, #4]	; (8000568 <EXTI0_IRQHandler+0x8>)
 8000562:	2201      	movs	r2, #1
 8000564:	615a      	str	r2, [r3, #20]
 8000566:	4770      	bx	lr
 8000568:	40010400 	andmi	r0, r1, r0, lsl #8

0800056c <Reset_Handler>:
 800056c:	b508      	push	{r3, lr}
 800056e:	4a25      	ldr	r2, [pc, #148]	; (8000604 <Reset_Handler+0x98>)
 8000570:	4b25      	ldr	r3, [pc, #148]	; (8000608 <Reset_Handler+0x9c>)
 8000572:	4926      	ldr	r1, [pc, #152]	; (800060c <Reset_Handler+0xa0>)
 8000574:	428b      	cmp	r3, r1
 8000576:	d33d      	bcc.n	80005f4 <Reset_Handler+0x88>
 8000578:	4b25      	ldr	r3, [pc, #148]	; (8000610 <Reset_Handler+0xa4>)
 800057a:	4a26      	ldr	r2, [pc, #152]	; (8000614 <Reset_Handler+0xa8>)
 800057c:	2100      	movs	r1, #0
 800057e:	4293      	cmp	r3, r2
 8000580:	d33d      	bcc.n	80005fe <Reset_Handler+0x92>
 8000582:	4925      	ldr	r1, [pc, #148]	; (8000618 <Reset_Handler+0xac>)
 8000584:	f8d1 3088 	ldr.w	r3, [r1, #136]	; 0x88
 8000588:	f443 0370 	orr.w	r3, r3, #15728640	; 0xf00000
 800058c:	f8c1 3088 	str.w	r3, [r1, #136]	; 0x88
 8000590:	4b22      	ldr	r3, [pc, #136]	; (800061c <Reset_Handler+0xb0>)
 8000592:	681a      	ldr	r2, [r3, #0]
 8000594:	2000      	movs	r0, #0
 8000596:	f442 7280 	orr.w	r2, r2, #256	; 0x100
 800059a:	601a      	str	r2, [r3, #0]
 800059c:	6098      	str	r0, [r3, #8]
 800059e:	681a      	ldr	r2, [r3, #0]
 80005a0:	f022 7286 	bic.w	r2, r2, #17563648	; 0x10c0000
 80005a4:	f422 3280 	bic.w	r2, r2, #65536	; 0x10000
 80005a8:	601a      	str	r2, [r3, #0]
 80005aa:	6198      	str	r0, [r3, #24]
 80005ac:	6d9a      	ldr	r2, [r3, #88]	; 0x58
 80005ae:	481c      	ldr	r0, [pc, #112]	; (8000620 <Reset_Handler+0xb4>)
 80005b0:	f042 5280 	orr.w	r2, r2, #268435456	; 0x10000000
 80005b4:	659a      	str	r2, [r3, #88]	; 0x58
 80005b6:	6802      	ldr	r2, [r0, #0]
 80005b8:	f442 62c0 	orr.w	r2, r2, #1536	; 0x600
 80005bc:	6002      	str	r2, [r0, #0]
 80005be:	689a      	ldr	r2, [r3, #8]
 80005c0:	609a      	str	r2, [r3, #8]
 80005c2:	689a      	ldr	r2, [r3, #8]
 80005c4:	f442 5260 	orr.w	r2, r2, #14336	; 0x3800
 80005c8:	609a      	str	r2, [r3, #8]
 80005ca:	689a      	ldr	r2, [r3, #8]
 80005cc:	f442 62e0 	orr.w	r2, r2, #1792	; 0x700
 80005d0:	609a      	str	r2, [r3, #8]
 80005d2:	f503 5380 	add.w	r3, r3, #4096	; 0x1000
 80005d6:	f240 7202 	movw	r2, #1794	; 0x702
 80005da:	601a      	str	r2, [r3, #0]
 80005dc:	f04f 6300 	mov.w	r3, #134217728	; 0x8000000
 80005e0:	608b      	str	r3, [r1, #8]
 80005e2:	f64f 70ff 	movw	r0, #65535	; 0xffff
 80005e6:	f7ff fde1 	bl	80001ac <mcual_gpio_init.constprop.0>
 80005ea:	4b0e      	ldr	r3, [pc, #56]	; (8000624 <Reset_Handler+0xb8>)
 80005ec:	f64f 72ff 	movw	r2, #65535	; 0xffff
 80005f0:	619a      	str	r2, [r3, #24]
 80005f2:	e7fe      	b.n	80005f2 <Reset_Handler+0x86>
 80005f4:	f852 0b04 	ldr.w	r0, [r2], #4
 80005f8:	f843 0b04 	str.w	r0, [r3], #4
 80005fc:	e7ba      	b.n	8000574 <Reset_Handler+0x8>
 80005fe:	f843 1b04 	str.w	r1, [r3], #4
 8000602:	e7bc      	b.n	800057e <Reset_Handler+0x12>
 8000604:	0800062c 	stmdaeq	r0, {r2, r3, r5, r9, sl}
 8000608:	20000000 	andcs	r0, r0, r0
 800060c:	20000000 	andcs	r0, r0, r0
 8000610:	20000000 	andcs	r0, r0, r0
 8000614:	2000080c 	andcs	r0, r0, ip, lsl #16
 8000618:	e000ed00 	and	lr, r0, r0, lsl #26
 800061c:	40021000 	andmi	r1, r2, r0
 8000620:	40007000 	andmi	r7, r0, r0
 8000624:	48000400 	stmdami	r0, {sl}

08000628 <ADC1_2_IRQHandler>:
 8000628:	e7fe      	b.n	8000628 <ADC1_2_IRQHandler>

Disassembly of section .bss:

20000000 <_sbss>:
	...

20000400 <can_tx_buffer>:
	...

20000800 <rx_index_write>:
20000800:	00000000 	andeq	r0, r0, r0

20000804 <tx_index_read>:
20000804:	00000000 	andeq	r0, r0, r0

20000808 <tx_index_write>:
20000808:	00000000 	andeq	r0, r0, r0

Disassembly of section ._usrstack:

2000080c <_susrstack>:
	...

Disassembly of section .comment:

00000000 <.comment>:
   0:	3a434347 	bcc	10d0d24 <__Stack_Size+0x10d0924>
   4:	72412820 	subvc	r2, r1, #32, 16	; 0x200000
   8:	52206863 	eorpl	r6, r0, #6488064	; 0x630000
   c:	736f7065 	cmnvc	pc, #101	; 0x65
  10:	726f7469 	rsbvc	r7, pc, #1761607680	; 0x69000000
  14:	38202979 	stmdacc	r0!, {r0, r3, r4, r5, r6, r8, fp, sp}
  18:	302e332e 	eorcc	r3, lr, lr, lsr #6
	...

Disassembly of section .ARM.attributes:

00000000 <.ARM.attributes>:
   0:	00003141 	andeq	r3, r0, r1, asr #2
   4:	61656100 	cmnvs	r5, r0, lsl #2
   8:	01006962 	tsteq	r0, r2, ror #18
   c:	00000027 	andeq	r0, r0, r7, lsr #32
  10:	2d453705 	stclcs	7, cr3, [r5, #-20]	; 0xffffffec
  14:	0d06004d 	stceq	0, cr0, [r6, #-308]	; 0xfffffecc
  18:	02094d07 	andeq	r4, r9, #448	; 0x1c0
  1c:	0412060a 	ldreq	r0, [r2], #-1546	; 0xfffff9f6
  20:	01150114 	tsteq	r5, r4, lsl r1
  24:	01180317 	tsteq	r8, r7, lsl r3
  28:	011b011a 	tsteq	fp, sl, lsl r1
  2c:	041e011c 	ldreq	r0, [lr], #-284	; 0xfffffee4
  30:	Address 0x0000000000000030 is out of bounds.

