
../brain_2019_loader/Output/brain_2019_loader.elf:     file format elf32-littlearm

Contents of section .isr_vector:
 8000000 00000220 e9250008 d5260008 d5260008  ... .%...&...&..
 8000010 d5260008 d5260008 d5260008 00000000  .&...&...&......
 8000020 00000000 00000000 00000000 d5260008  .............&..
 8000030 d5260008 00000000 d5260008 d5260008  .&.......&...&..
 8000040 d5260008 d5260008 d5260008 d5260008  .&...&...&...&..
 8000050 d5260008 d5260008 dd250008 d1250008  .&...&...%...%..
 8000060 c5250008 b9250008 ad250008 d5260008  .%...%...%...&..
 8000070 d5260008 d5260008 d5260008 d5260008  .&...&...&...&..
 8000080 d5260008 d5260008 d5260008 89230008  .&...&...&...#..
 8000090 71230008 59230008 55230008 81250008  q#..Y#..U#...%..
 80000a0 d5260008 d5260008 d5260008 d5260008  .&...&...&...&..
 80000b0 d5260008 d5260008 d5260008 d5260008  .&...&...&...&..
 80000c0 d5260008 d5260008 d5260008 d5260008  .&...&...&...&..
 80000d0 d5260008 cd240008 d5260008 d5260008  .&...$...&...&..
 80000e0 55250008 d5260008 d5260008 d5260008  U%...&...&...&..
 80000f0 d5260008 d5260008 d5260008 d5260008  .&...&...&...&..
 8000100 d5260008 d5260008 d5260008 d5260008  .&...&...&...&..
 8000110 d5260008 d5260008 d5260008 d5260008  .&...&...&...&..
 8000120 d5260008 d5260008 d5260008 d5260008  .&...&...&...&..
 8000130 d5260008 d5260008 d5260008 d5260008  .&...&...&...&..
 8000140 d5260008 d5260008 d5260008 d5260008  .&...&...&...&..
 8000150 d5260008 d5260008 d5260008 d5260008  .&...&...&...&..
 8000160 d5260008 d5260008 d5260008 d5260008  .&...&...&...&..
 8000170 d5260008 d5260008 d5260008 d5260008  .&...&...&...&..
 8000180 d5260008 d5260008                    .&...&..        
Contents of section .text:
 8000188 37b50d49 0d4d4ff4 7a730024 4a6802f0  7..I.MO.zs.$Jh..
 8000198 01028242 0ed00194 019aaa42 06d9013b  ...B.......B...;
 80001a8 9bb2002b f2d11846 03b030bd 019a0132  ...+...F..0....2
 80001b8 0192f1e7 0120f7e7 00640040 9f860100  ..... ...d.@....
 80001c8 064ad068 48b10368 d360538a 918a0133  .J.hH..h.`S....3
 80001d8 9bb29942 538238bf 93827047 68000020  ...BS.8...pGh.. 
 80001e8 0c4b70b5 598adc68 00264268 4d1eadb2  .Kp.Y..h.&BhM...
 80001f8 4ab90eb1 dc605982 c38a6ff3 0903c382  J....`Y...o.....
 8000208 00210020 70bd1168 14600126 41601446  .!. p..h.`.&A`.F
 8000218 2946eae7 68000020 2de9f843 c38a0646  )F..h.. -..C...F
 8000228 c3f30900 06288846 15460346 1dd00021  .....(.F.F.F...!
 8000238 92b206f1 190c1ffa 83fe8cb2 bef1050f  ................
 8000248 274603d8 944203f1 010308d3 94420dd3  'F...B.......B..
 8000258 f38a0244 62f30903 f3820120 17e018f8  ...Db...... ....
 8000268 01400cf8 03400131 e5e70027 821f1c23  .@...@.1...'...#
 8000278 7468b2fb f3f903fb 19291ffa 89f17cbb  th.......)....|.
 8000288 fff79eff 044620b9 70606ff0 0200bde8  .....F .p`o.....
 8000298 f8830021 01607060 adb24ff0 0009bd42  ...!.`p`..O....B
 80002a8 26d8f38a c3f30902 154465f3 0903d3e7  &........De.....
 80002b8 013292b2 1c462368 002bf9d1 ab1f0344  .2...F#h.+.....D
 80002c8 1c20b3fb f0f30133 9bb29a42 e4d2b9f1  . .....3...B....
 80002d8 000fe1d1 fff774ff 20b9c4f8 0090d4e7  ......t. .......
 80002e8 0122e8e7 c0f80090 49462060 0446d3e7  ."......IF `.F..
 80002f8 0b4608eb 0702201d 12f801cb 00f803c0  .F.... .........
 8000308 1ffa83fc 0137bcf1 1b0fbfb2 04d0af42  .....7.........B
 8000318 03f10103 f0d3c2e7 af42c0d2 fff750ff  .........B....P.
 8000328 08b92060 b1e7c0f8 00900021 20600446  .. `.......! `.F
 8000338 b5e72de9 f0430768 17b90160 bde8f083  ..-..C.h...`....
 8000348 4e6826f0 604cc6f3 8078f60f 4fea9c45  Nh&.`L...x..O..E
 8000358 be4608bf 65463a46 53684fea d3794e45  .F..eF:FShO..yNE
 8000368 23f06044 0bd0b9f1 000f17d0 a40cac42  #.`D...........B
 8000378 16d19742 0ed10f60 dfe71a46 ece7a445  ...B...`...F...E
 8000388 03d1c3f3 80739845 0ed1a445 2cbf0023  .....s.E...E,..#
 8000398 012309e0 cef80010 0a60cfe7 ac4205d0  .#.......`...B..
 80003a8 ac4294bf 00230123 002be2d1 13689646  .B...#.#.+...h.F
 80003b8 002be2d1 1160c1e7 80ea0120 082341f2  .+...`..... .#A.
 80003c8 210201b2 40000029 80b203f1 ff33b8bf  !...@..).....3..
 80003d8 504013f0 ff03f4d1 704738b5 0c468d18  P@......pG8..F..
 80003e8 ac4200d1 38bd14f8 011bfff7 e5fff7e7  .B..8...........
 80003f8 2de9f047 089e01f0 07054fea d60e2a44  -..G......O...*D
 8000408 06f00706 00ebd100 4ff47f49 954201d1  ........O..I.B..
 8000418 bde8f087 05f0070c 06f0070a d4456746  .............EgF
 8000428 4fead504 38bf5746 c7f10807 511b0eeb  O...8.WF....Q...
 8000438 d6088f42 045d28bf 0f4604fa 0cf413f8  ...B.](..F......
 8000448 081029fa 07fc24fa 0af45ffa 8cfc4c40  ..)...$..._...L@
 8000458 4cfa0afc 04ea0c04 614003f8 08103d44  L.......a@....=D
 8000468 3e44d3e7 10b5cb68 1bb98b60 0b618b82  >D.....h...`.a..
 8000478 10bdc468 1a681c60 c360438a 013b4382  ...h.h.`.`C..;C.
 8000488 ca60f0e7 bff34f8f 0549064b ca6802f4  .`....O..I.K.h..
 8000498 e0621343 cb60bff3 4f8f00bf fde700bf  .b.C.`..O.......
 80004a8 00ed00e0 0400fa05 094b4ff0 004280b5  .........KO..B..
 80004b8 1a61a3f5 96330022 9a81064b 064a9a60  .a...3."...K.J.`
 80004c8 012300af 1b6883f3 08880523 1b689847  .#...h.....#.h.G
 80004d8 003c0240 00ed00e0 00400008 00010b7b  .<.@.....@.....{
 80004e8 00f18040 00f5cb40 dbb230b5 4360cd7a  ...@...@..0.C`.z
 80004f8 8b7a4a7a 0c7a1b04 43ea0563 234343ea  .zJz.z..C..c#CC.
 8000508 0223c360 cd798b79 4a790c79 1b0443ea  .#.`.y.yJy.y..C.
 8000518 05632343 43ea0223 83600a68 002ab6bf  .c#CC..#.`.h.*..
 8000528 d3005305 43f00403 520048bf 43f00203  ..S.C...R.H.C...
 8000538 43f00103 03600a4b 1a680132 1a601a68  C....`.K.h.2.`.h
 8000548 3f2ac4bf 00221a60 1a68064b 1b689a42  ?*...".`.h.K.h.B
 8000558 01bf054a 536923f0 01035361 30bd00bf  ...JSi#...Sa0...
 8000568 e4220020 e8220020 00640040 410746bf  .". .". .d.@A.F.
 8000578 c30843f0 0043430d 820748bf 43f08043  ..C..CC...H.C..C
 8000588 18467047 7fb50446 0068104d fff7eeff  .FpG...F.h.M....
 8000598 6368a668 e1682a68 0d4c0291 cde90006  ch.h.h*h.L......
 80005a8 03f00f03 8df80c30 04ab04eb 021413e9  .......0........
 80005b8 0f0084e8 0f002b68 01332b60 2b683f2b  ......+h.3+`+h?+
 80005c8 c4bf0023 2b6004b0 70bd00bf 94120020  ...#+`..p...... 
 80005d8 40060020 30b5cb0f c50f9d42 20f06044  @.. 0......B .`D
 80005e8 21f06042 0ad005b1 a40c03b1 920c9442  !.`B...........B
 80005f8 02d034bf 01230023 184630bd 944205d1  ..4..#.#.F0..B..
 8000608 c1f38073 c0f38070 9842f5d1 94422cbf  ...s...p.B...B,.
 8000618 00230123 f0e70000 1d4b2de9 f04753f8  .#.#.....K-..GS.
 8000628 2040d4f8 2090656a 26680020 4ff0010c   @.. .ej&h. O...
 8000638 4ff0030e 4ff00208 0f270cfa 00f30b42  O...O....'.....B
 8000648 14d04300 0efa03fa 26ea0a06 08fa03f3  ..C.....&.......
 8000658 072846ea 03064fea 800310dc 07fa03fa  .(F...O.........
 8000668 29ea0a09 02fa03f3 43ea0909 01301028  ).......C....0.(
 8000678 e3d12660 c4f82090 6562bde8 f087203b  ..&`.. .eb.... ;
 8000688 07fa03fa 25ea0a05 02fa03f3 1d43ede7  ....%........C..
 8000698 9c2b0008 2de9f047 90461d4a 8e460126  .+..-..G.F.J.F.&
 80006a8 116b06fa 00f30b43 13631a4b 53f82030  .k.....C.c.KS. 0
 80006b8 1d689968 1a6a5f6a 00244ff0 03094ff0  .h.h.j_j.$O...O.
 80006c8 0f0c06fa 04f010ea 0e0f18d0 600009fa  ............`...
 80006d8 00fa25ea 0a05b8f1 000f02d0 06fa00f0  ..%.............
 80006e8 0543072c 4fea8400 cabf2038 0cfa00f0  .C.,O..... 8....
 80006f8 0cfa00f0 41ea0a01 d4bf8243 87430134  ....A......C.C.4
 8000708 102cded1 1d609960 1a625f62 bde8f087  .,...`.`.b_b....
 8000718 00380240 9c2b0008 3f4a9368 03f00c03  .8.@.+..?J.h....
 8000728 042b10b5 2cd0082b 12d0002b 3b4b18bf  .+..,..+...+;K..
 8000738 0023394a 926802f0 f002b02a 41d021d8  .#9J.h.....*A.!.
 8000748 902a3ad0 a02a3ad0 802a20d1 5b081ee0  .*:..*:..* .[...
 8000758 53683249 546813f4 800f314b 08bf0b46  Sh2ITh....1K...F
 8000768 51685268 c2f30142 0132c1f3 881104f0  QhRh...B.2......
 8000778 3f045200 b3fbf4f3 4b43b3fb f2f3d8e7  ?.R.....KC......
 8000788 274bd6e7 d02a20d0 11d8c02a 1bd060b1  'K...* ....*..`.
 8000798 012826d1 204a9268 02f4e052 b2f5a05f  .(&. J.h...R..._
 80007a8 34d016d8 b2f5805f 2ed01846 10bde02a  4......_...F...*
 80007b8 0dd0f02a ebd15b0a e9e79b08 e7e7db08  ...*..[.........
 80007c8 e5e71b09 e3e79b09 e1e7db09 dfe71b0a  ................
 80007d8 dde7b2f5 c05f1bd0 b2f5e05f e5d11b09  ....._....._....
 80007e8 e3e70228 16d10c4a 926802f4 6042b2f5  ...(...J.h..`B..
 80007f8 204f0bd0 02d8b2f5 004fd5e7 b2f5404f   O.......O....@O
 8000808 06d0b2f5 604fe9e7 5b08cee7 9b08cce7  ....`O..[.......
 8000818 db08cae7 0023c8e7 00380240 0024f400  .....#...8.@.$..
 8000828 001bb700 2de9f347 dff874e0 1b4fdff8  ....-..G..t..O..
 8000838 7490dff8 74c0dff8 74a07646 4ff00008  t...t...t.vFO...
 8000848 def81c30 3bb33c68 0134402c a8bf0024  ...0;.<h.4@,...$
 8000858 72b60433 0fcb3d68 09eb0515 85e80f00  r..3..=h........
 8000868 3c6062b6 dcf81430 43f00103 ccf81430  <`b....0C......0
 8000878 cdf80480 02e0019b 01330193 019b5345  .........3....SE
 8000888 f9d9f369 1a68f261 f2681a60 f360738a  ...i.h.a.h.`.`s.
 8000898 013b7382 d4e702b0 bde8f087 e8220020  .;s..........". 
 80008a8 68000020 400a0020 00640040 3f420f00  h.. @.. .d.@?B..
 80008b8 012b30b5 21d1012a 07d11ca5 d5e90045  .+0.!..*.......E
 80008c8 c1e90045 13461846 30bd052a 05d119a5  ...E.F.F0..*....
 80008d8 d5e90045 c1e90045 f5e70b2a 03d117a5  ...E...E...*....
 80008e8 d5e90045 f6e7282a 15d116a5 d5e90045  ...E..(*.......E
 80008f8 c1e90045 03f00103 e5e763b9 302af9d1  ...E......c.0*..
 8000908 094a1278 022af5d1 05a3d3e9 0023c1e9  .J.x.*.......#..
 8000918 00230123 eee70023 ece700bf aff30080  .#.#...#........
 8000928 78f6339f 93cacd8d 14060020 9e6ac421  x.3........ .j.!
 8000938 818a46ee f017304a 39059e56 d5a4d139  ..F...0J9..V...9
 8000948 f922b6a7 26417272 df25d7b7 70b588b0  ."..&Arr.%..p...
 8000958 04462022 00216846 01f092ff 0494fff7  .F ".!hF........
 8000968 2ffc0546 58b16b46 044608ae 1a4603ca  /..FX.kF.F...F..
 8000978 b2422060 61601346 04f10804 f6d12846  .B `a`.F......(F
 8000988 08b070bd 2de9f74f bdf83050 00908b46  ..p.-..O..0P...F
 8000998 01929a46 1db1002b 73d0072d 27d8fff7  ...F...+s..-'...
 80009a8 0ffc0446 28b96ff0 02042046 03b0bde8  ...F(.o... F....
 80009b8 f08f1422 002101f0 63ff2a46 514604f1  ...".!..c.*FQF..
 80009c8 080001f0 4fff6b1c 23749bf8 00302e48  ....O.k.#t...0.H
 80009d8 254403f0 1f0363f0 3f032b72 009b43f0  %D....c.?.+r..C.
 80009e8 00436360 2146fff7 a4fc0124 dde70024  .Cc`!F.....$...$
 80009f8 4ff08008 a1462646 fff7e2fb 07460028  O....F&F.....F.(
 8000a08 d1d01422 002101f0 3bff002e 37d1019b  ...".!..;...7...
 8000a18 3b810221 01f10800 0aeb060c 38444a1c  ;..!........8DJ.
 8000a28 b542d2b2 01d80a46 08e01cf8 011b00f8  .B.....F........
 8000a38 011b0136 062ab6b2 1146f0d9 9bf80010  ...6.*...F......
 8000a48 01f01f01 b54208bf 4ff04008 b81841ea  .....B..O.@...A.
 8000a58 491148ea 01030372 009b0b48 43f00043  I.H....r...HC..C
 8000a68 01327b60 3a743946 fff763fc 0134b542  .2{`:t9F..c..4.B
 8000a78 24b289f0 01094ff0 0008bdd1 95e70021  $.....O........!
 8000a88 c8e76ff0 010490e7 84000020 2de9f74f  ..o........ -..O
 8000a98 109f0d9d 9df83c80 bdf84460 9a469146  ......<...D`.F.F
 8000aa8 9df83830 0fb9002e 4dd11f2b 4bd8294a  ..80....M..+K.)J
 8000ab8 1478002c 4ad044ea 002444ea c8349df8  .x.,J.D..$D..4..
 8000ac8 301044ea 036444ea 0144072e 44f08004  0.D..dD..D..D...
 8000ad8 36d94ff0 000b4ff6 ff7ccbf1 2002abf1  6.O...O..|.. ...
 8000ae8 200329fa 0bf10afa 02f21143 2afa03f3   .)........C*...
 8000af8 19436046 c9b2fff7 5ffc0bf1 080bbbf1  .C`F...._.......
 8000b08 400f8446 e9d13246 3946fff7 66fc0246  @..F..2F9F..f..F
 8000b18 00963b46 29462046 fff734ff b8f1010f  ..;F)F F..4.....
 8000b28 06d12b78 0133dbb2 1f2b88bf 00232b70  ..+x.3...+...#+p
 8000b38 002802dc 084b0122 1a7003b0 bde8f08f  .(...K.".p......
 8000b48 4ff6ff72 e4e76ff0 0100f3e7 6ff00300  O..r..o.....o...
 8000b58 f0e700bf 68000020 8c040020 30b5012a  ....h.. ... 0..*
 8000b68 85b04ff0 0004cde9 02440ed1 1b788df8  ..O......D...x..
 8000b78 083004ab 03ebd205 544215f8 083c04f0  .0......TB...<..
 8000b88 0704a340 05f8083c 06e0082a 0cd81b78  ...@...<...*...x
 8000b98 8df80830 5307ecd1 00910346 002102a8  ...0S......F.!..
 8000ba8 fff726fc 05b030bd 102a03d8 1b88adf8  ..&...0..*......
 8000bb8 0830efe7 202a8dbf d3e90045 1b680293  .0.. *.....E.h..
 8000bc8 cde90245 e6e70000 38b51a4d 04460346  ...E....8..M.F.F
 8000bd8 20222846 0021fff7 c1ff2279 2346032a   "(F.!...."y#F.*
 8000be8 28bf0322 03f8042f 28460222 2021fff7  (..".../(F." !..
 8000bf8 b5ff6279 2346072a 28bf0722 03f8052f  ..by#F.*(..".../
 8000c08 28460322 2221fff7 a9ffa279 2346072a  (F.""!.....y#F.*
 8000c18 28bf0722 03f8062f 28460322 2521fff7  (..".../(F."%!..
 8000c28 9dff2846 04f10803 10222821 fff796ff  ..(F....."(!....
 8000c38 382038bd 8d040020 f8b50546 03460322  8 8.... ...F.F."
 8000c48 22480e46 fff78aff 2b78f41c 53b1012b  "H.F....+x..S..+
 8000c58 0ad12146 05f10803 40221c48 fff77eff  ..!F....@".H..~.
 8000c68 06f14304 2046f8bd 022b09d1 214605f1  ..C. F...+..!F..
 8000c78 08032022 1548fff7 71ff06f1 2304f1e7  .. ".H..q...#...
 8000c88 032b09d1 214605f1 08030822 0f48fff7  .+..!F.....".H..
 8000c98 65ff06f1 0b04e5e7 042be3d1 214605f1  e........+..!F..
 8000ca8 08030822 0948094f fff758ff 06f10b04  ...".H.O..X.....
 8000cb8 00262b7a 9e42d5d2 eb682146 33440822  .&+z.B...h!F3D."
 8000cc8 3846fff7 4bff0834 0136f2e7 8d040020  8F..K..4.6..... 
 8000cd8 38b50446 03460222 0e480d46 fff73eff  8..F.F.".H.F..>.
 8000ce8 2378a91c 4bb1012b 09d104f1 08034022  #x..K..+......@"
 8000cf8 0848fff7 33ff05f1 42010846 38bd022b  .H..3...B..F8..+
 8000d08 fbd104f1 08032022 0248fff7 27ff05f1  ...... ".H..'...
 8000d18 2201f2e7 8d040020 2de9f04f 8bb00e46  "...... -..O...F
 8000d28 14460493 ddf850a0 83460028 00f00f81  .F....P..F.(....
 8000d38 baf1000f 00f00b81 858aed00 0023a942  .............#.B
 8000d48 cde90833 03d30020 0bb0bde8 f08f8b18  ...3... ........
 8000d58 9d42c368 3abf6d1a edb21546 1bb90369  .B.h:.m....F...i
 8000d68 002b00f0 95802f2e 67d8c6f1 3007bd42  .+..../.g...0..B
 8000d78 4ff00003 2cbfffb2 2f460093 314608ab  O...,.../F..1F..
 8000d88 3a46dbf8 0800fff7 33fba5eb 07083e44  :F......3.....>D
 8000d98 5ffa88f8 bbf81430 03f10053 063bdb00  _......0...S.;..
 8000da8 0593dbf8 0c300393 3021039b 13b1b8f1  .....0..0!......
 8000db8 000f45d1 dbf81000 40b1b8f1 000f05d0  ..E.....@.......
 8000dc8 009708ab 4246711a fff712fb 28b2002d  ....BFq.....(..-
 8000dd8 b9d06507 0ad00aab 03ebd401 624211f8  ..e.........bB..
 8000de8 083c02f0 07021341 01f8083c 082c40f2  .<.....A...<.,@.
 8000df8 bc80102c 40f2bf80 202c40f2 c180049b  ...,@... ,@.....
 8000e08 002b00f0 9f800823 b4ebc30f 00f0a580  .+.....#........
 8000e18 082c42d8 9df82030 621e23fa 02f2d107  .,B... 0b.#.....
 8000e28 06d54ff0 ff3202fa 04f42343 8df82030  ..O..2....#C.. 0
 8000e38 9df82030 8af80030 86e7a846 0027a9e7  .. 0...0...F.'..
 8000e48 059be02b 28bfe023 07930b44 b3420693  ...+(..#...D.B..
 8000e58 15d9a3eb 0609c845 03980097 2cbf5ffa  .......E....,._.
 8000e68 89f9c146 711a08ab 4a460430 fff7c0fa  ...Fq...JF.0....
 8000e78 4f44a8eb 09084e44 ffb25ffa 88f8059b  OD....ND.._.....
 8000e88 079a0699 9b1a0593 039b1b68 03938ce7  ...........h....
 8000e98 00932a46 08ab8068 96e7102c 12d8bdf8  ..*F...h...,....
 8000ea8 2030621e 23fa02f2 d20706d5 4ff0ff32   0b.#.......O..2
 8000eb8 02fa04f4 2343adf8 2030bdf8 2030aaf8  ....#C.. 0.. 0..
 8000ec8 003041e7 202c0fd8 089a631e 22fa03f3  .0A. ,....c."...
 8000ed8 db0705d5 4ff0ff33 03fa04f4 14430894  ....O..3.....C..
 8000ee8 089bcaf8 00302fe7 402c33d0 dde90851  .....0/.@,3....Q
 8000ef8 631ec3f1 200601fa 06f6a4f1 210225fa  c... .......!.%.
 8000f08 03f33343 21fa02f2 13434ff0 010c4ff0  ..3C!....CO...O.
 8000f18 000e03ea 0c067746 56ea0703 12d0a4f1  ......wFV.......
 8000f28 2007c4f1 20060cfa 07f32cfa 06f60cfa   ... .....,.....
 8000f38 04f25242 43ea0603 63eb4303 15431943  ..RBC...c.C..C.C
 8000f48 cde90851 dde90823 cae90023 fce66ff0  ...Q...#...#..o.
 8000f58 0100f9e6 6ff00800 f6e6082c 7ff668af  ....o......,..h.
 8000f68 102caad9 202cedd8 bae7049b 002b3ff4  .,.. ,.......+?.
 8000f78 5faf0123 48e7049b 002b9ed0 022343e7  _..#H....+...#C.
 8000f88 049b002b acd00423 3ee70000 00000000  ...+...#>.......
 8000f98 70b52d4b d3e90065 8ab00023 ce20cde9  p.-K...e...#. ..
 8000fa8 06658df8 20300993 01f04cfc 04460028  .e.. 0....L..F.(
 8000fb8 42d0ff21 a9424ff0 ff3008bf b0422b46  B..!.BO..0...B+F
 8000fc8 32463cbf 0b460246 cde90623 002106ab  2F<..F.F...#.!..
 8000fd8 28222046 fff7c2fd 08ab0822 28212046  (" F......."(! F
 8000fe8 fff7bcfd 00259df8 2020eb00 954203f1  .....%..  ...B..
 8000ff8 300119d3 3733c3f3 cf03cde9 04430122  0...73.......C."
 8001008 1023cde9 0232114b 01931149 30230093  .#...2.K...I0#..
 8001018 08780ba3 d3e90023 fff738fd 20460ab0  .x.....#..8. F..
 8001028 bde87040 01f016bc 099b0822 2b442046  ..p@......."+D F
 8001038 fff794fd 0135d6e7 0ab070bd aff30080  .....5....p.....
 8001048 78f6339f 93cacd8d 20060020 28060020  x.3..... .. (.. 
 8001058 29060020 00000000 2de9f04f 0f7e012f  ).. ....-..O.~./
 8001068 a5b08046 0c4640f0 dd82cd8a 012d40f0  ...F.F@......-@.
 8001078 c380fff7 f7f9b849 b84a0023 d1e90001  .......I.J.#....
 8001088 01f010fc b64b1290 1b788df8 4c30b54b  .....K...x..L0.K
 8001098 b54a1b78 8df84d30 00230021 8df84e30  .J.x..M0.#.!..N0
 80010a8 adf85030 00201323 adf85830 cde91801  ..P0. .#..X0....
 80010b8 adf86830 0df16a08 ac4bad49 17928df8  ..h0..j..K.I....
 80010c8 5a504246 13f8010b 02f8010b 8b42f9d1  ZPBF.........B..
 80010d8 0023adf8 7630adf8 78308df8 7c302093  .#..v0..x0..|0 .
 80010e8 a44b2293 12a81123 8df88430 fff76cfd  .K"....#...0..l.
 80010f8 16ab0546 01460822 9f489f4f fff72efd  ...F.F.".H.O....
 8001108 0822a918 0df15903 9b48fff7 27fd0df1  ."....Y..H..'...
 8001118 5a030822 05f11001 9748fff7 1ffd17ab  Z..".....H......
 8001128 202205f1 18019448 fff718fd 18ab4022   ".....H......@"
 8001138 05f13801 9048fff7 11fd1aab 082205f1  ..8..H......."..
 8001148 78018d48 fff70afd 0df16903 082205f1  x..H......i.."..
 8001158 80018948 fff702fd 05f18806 05f58479  ...H...........y
 8001168 43463146 08223846 0836fff7 f7fc4e45  CF1F."8F.6....NE
 8001178 08f10108 f4d13146 1fab0822 7e48dff8  ......1F..."~H..
 8001188 f881fff7 ebfc05f5 88750026 9df87c30  .........u.&..|0
 8001198 9e421fd3 dff8e081 00269df8 84309e42  .B.......&...0.B
 80011a8 05ebc601 20d30731 c1f3cf01 cde90471  .... ..1.......q
 80011b8 00230393 a37e0293 04f11903 01930123  .#...~.........#
 80011c8 0093e07e 5ca3d3e9 0023fff7 5ffc25b0  ...~\....#.._.%.
 80011d8 bde8f08f 209b2946 33440822 4046fff7  .... .)F3D."@F..
 80011e8 bdfc0835 0136d1e7 229b0822 33444046  ...5.6..".."3D@F
 80011f8 fff7b4fc 0136d0e7 052d38d1 002508ab  .....6...-8..%..
 8001208 00932822 2b462946 2046cde9 0855fff7  ..("+F)F F...U..
 8001218 83fd2828 08d1dde9 082349a1 d1e90001  ..((.....#I.....
 8001228 8b4204bf 82420125 534e2146 4046fff7  .B...B.%SN!F@F..
 8001238 19f907ab 01223046 00218df8 1c50fff7  ....."0F.!...P..
 8001248 8dfc0123 cde90463 00230393 a37e0293  ...#...c.#...~..
 8001258 04f11903 01930523 0093e07e 3aa3d3e9  .......#...~:...
 8001268 0023fff7 13fc002d b1d0fff7 0bf90b2d  .#.....-.......-
 8001278 40f05581 00221546 0aab8df8 48208df8  @.U..".F....H ..
 8001288 58208df8 68208df8 78208df8 88208e8a  X ..h ..x ... ..
 8001298 1a462946 0135202d 03f8011b fad10023  .F)F.5 -.......#
 80012a8 00921946 0d222046 fff736fd 0d280146  ...F." F..6..(.F
 80012b8 08d10cab 00930322 00232046 fff72cfd  .......".# F..,.
 80012c8 03285bd0 00274046 2146fff7 cbf80521  .([..'@F!F.....!
 80012d8 12a8fff7 b1fc411d 16a8fff7 adfc811d  ......A.........
 80012e8 1aa8fff7 f5fc811d 1ea8fff7 f1fcdff8  ................
 80012f8 88800646 00259df8 88309d42 06ebc501  ...F.%...0.B....
 8001308 c0f00581 1c4b0493 07310023 c1f3cf01  .....K...1.#....
 8001318 05910393 a37e0293 04f11903 01930b23  .....~.........#
 8001328 0093e07e 0aa3d3e9 0023fff7 affb002f  ...~.....#...../
 8001338 3ff44daf 99e700bf 9e6ac421 818a46ee  ?.M......j.!..F.
 8001348 1e1b55ce ac000000 f017304a 39059e56  ..U.......0J9..V
 8001358 d5a4d139 f922b6a7 30060020 40420f00  ...9."..0.. @B..
 8001368 8c040020 00000020 536a9f9e 107aff1f  ... ... Sj...z..
 8001378 1c7aff1f cc2b0008 8d040020 9df83030  .z...+..... ..00
 8001388 002b00f0 a680012b 4fd10eaa 00921021  .+.....+O......!
 8001398 40222046 fff7c0fc 402893d1 dff83893  @" F....@(....8.
 80013a8 5025002e 00f09980 d5ebc606 48bf0736  P%..........H..6
 80013b8 f6108df8 4060cdf8 44900026 9df84030  ....@`..D..&..@0
 80013c8 9e4209eb 0602c0f0 9580bf49 119801f0  .B.........I....
 80013d8 5ffa0028 7ff476af 9df83810 72b6bb4b  _..(..v...8.r..K
 80013e8 1a6942f0 00421a61 b94a5a60 02f18832  .iB..B.a.JZ`...2
 80013f8 5a6040f2 01221a61 da68d003 fcd4b54a  Z`@..".a.h.....J
 8001408 1160da68 12f48032 fbd11a61 62b60123  .`.h...2...ab..#
 8001418 8df84830 dde90e23 cde91423 9df84030  ..H0...#...#..@0
 8001428 8df88830 119b2393 4de7022b 0ed10eab  ...0..#.M..+....
 8001438 00932a46 00231021 2046fff7 6dfc2028  ..*F.#.! F..m. (
 8001448 7ff440af dff89092 3025aae7 032b0ed1  ..@.....0%...+..
 8001458 0eab0093 08220023 10212046 fff75cfc  .....".#.! F..\.
 8001468 08287ff4 2fafdff8 70921825 99e7042b  .(../...p..%...+
 8001478 2fd10eb3 f300103b 48bf0733 db108df8  /......;H..3....
 8001488 38301025 944b0f93 4ff0000a 9b469df8  80.%.K..O....F..
 8001498 38309a45 0beb0a09 83d2cdf8 00900023  80.E...........#
 80014a8 08222946 2046fff7 37fc0828 7ff40aaf  .")F F..7..(....
 80014b8 08350af1 010aeae7 0eab0093 08223346  .5..........."3F
 80014c8 10212046 fff728fc 08287ff4 fbae1825  .! F..(..(.....%
 80014d8 d8e7dff8 04921025 63e710ab 00930722  .......%c......"
 80014e8 33462946 2046fff7 17fc0728 7ff4eaae  3F)F F.....(....
 80014f8 073560e7 00920023 082205eb c6012046  .5`....#.".... F
 8001508 fff70afc 08287ff4 ddae0136 56e7239b  .....(.....6V.#.
 8001518 08222b44 4046fff7 21fb0135 ebe6282d  ."+D@F..!..5..(-
 8001528 40f04d81 6d4d0023 8df84c30 14932b78  @.M.mM.#..L0..+x
 8001538 002b6dd1 2f702146 69488df8 4830fef7  .+m./p!FiH..H0..
 8001548 91ff8120 01f07ef9 074610b3 12ab0822  ... ..~..F....."
 8001558 0021fff7 03fb0023 9df84c20 5e1c9342  .!.....#..L ^..B
 8001568 4feac601 56d3c1f3 cf01cde9 04710023  O...V........q.#
 8001578 0393a37e 029304f1 19030193 28230093  ...~........(#..
 8001588 e07e4fa3 d3e90023 fff780fa 384601f0  .~O....#....8F..
 8001598 61f92b78 012b7ff4 1aae0223 2b70514b  a.+x.+.....#+pQK
 80015a8 d3e90001 504bc3e9 0001504b 03221a70  ....PK....PK.".p
 80015b8 fff738f9 4e4be27e 00200021 c3e90001  ..8.NK.~. .!....
 80015c8 4c4b1a70 72b6414b 1a6942f0 00421a61  LK.pr.AK.iB..B.a
 80015d8 3f4a5a60 02f18832 5a60da68 d203fcd4  ?JZ`...2Z`.h....
 80015e8 3a490822 40f20224 084642ea 04030b61  :I."@..$.FB....a
 80015f8 0b6943f4 80330b61 c36813f4 8033fbd1  .iC..3.a.h...3..
 8001608 0832582a f1d10361 62b6fff7 c1fcdee5  .2X*...ab.......
 8001618 022390e7 149a3846 13440822 fff79efa  .#....8F.D."....
 8001628 334699e7 002f40f0 ca80cb8a 302b40f0  3F.../@.....0+@.
 8001638 c6802a4b 1a78022a 994640f0 c0804ff4  ..*K.x.*.F@...O.
 8001648 827001f0 fff80546 00283ff4 c0ad12ab  .p.....F.(?.....
 8001658 a68a1a46 39460137 0c2f03f8 011bfad1  ...F9F.7./......
 8001668 00920021 01231022 2046fff7 55fb1028  ...!.#." F..U..(
 8001678 014640f0 9e80002e 3ed0f600 b6f11003  .F@.....>.......
 8001688 48bfa6f1 0903db10 adf84c30 10271495  H.........L0.'..
 8001698 0026bdf8 4c309e42 05eb0602 37d32146  .&..L0.B....7.!F
 80016a8 0f48fef7 dffebdf9 4830002b 3bd00023  .H......H0.+;..#
 80016b8 89f80030 0d4b0222 1a707ae0 aff30080  ...0.K.".pz.....
 80016c8 26417272 df25d7b7 de2b0008 003c0240  &Arr.%...+...<.@
 80016d8 23016745 c82b0008 8d040020 14060020  #.gE.+..... ... 
 80016e8 68000020 38060020 08060020 00000020  h.. 8.. ... ... 
 80016f8 20060020 29060020 13ab0093 09223346   .. ).. ....."3F
 8001708 2046fff7 09fb0928 53d11927 bfe70092   F.....(S..'....
 8001718 00230822 07ebc601 2046fff7 fdfa0828  .#.".... F.....(
 8001728 47d10136 b5e72848 284b149a bdf84c70  G..6..(H(K....Lp
 8001738 40f20121 d0e90046 1961d968 11f48031  @..!...F.a.h...1
 8001748 fbd104f1 006cdff8 84e00cf5 804c8f42  .....l.......L.B
 8001758 0ad81e4b 0022ff2f 1a611cd8 1c4b1b68  ...K."./.a...K.h
 8001768 013326d0 fef7a0fe 937892f8 019092f8  .3&......x......
 8001778 00801b04 43ea0923 43ea0803 92f80380  ....C..#C.......
 8001788 43ea0863 4cf80130 def80c30 db03fbd4  C..cL..0...0....
 8001798 04310432 dbe714f5 807446f1 0006c0e9  .1.2.....tF.....
 80017a8 0046fff7 f5fb0b4b d3e90001 0a4bc3e9  .F.....K.....K..
 80017b8 00012846 25b0bde8 f04f01f0 4bb82146  ..(F%....O..K.!F
 80017c8 4046fef7 4ffe02e5 20060020 003c0240  @F..O... .. .<.@
 80017d8 00400008 38060020 08060020 cf4adff8  .@..8.. ... .J..
 80017e8 7cc39368 116841f0 01012de9 f04f1160  |..h.hA...-..O.`
 80017f8 cb49dff8 6c830a68 dff86893 22f00f02  .I..l..h..h."...
 8001808 42f00502 0a600122 9db00221 16464ff0  B....`."...!.FO.
 8001818 ff374ff4 7a5e0cfb 01f0a0f5 3b30a0f5  .7O.z^......;0..
 8001828 00704045 15d809fb 01f48d00 b4fbfef4  .p@E............
 8001838 0efb04f0 b0fbf5f5 bceb0500 44bfa5f5  ............D...
 8001848 24304038 002f01db b84202da 07460a46  $0@8./...B...F.F
 8001858 26460231 0a29ded1 5210b101 013a41ea  &F.1.)..R....:A.
 8001868 02424ff4 7a51ad4d 4e4342f0 0402ad49  .BO.zQ.MNCB....I
 8001878 b6fbf1f6 013642ea 06626a60 2a6842f0  .....6B..bj`*hB.
 8001888 80722a60 2a689101 fcd523f4 7c4323f0  .r*`*h....#.|C#.
 8001898 f30343f4 144343f0 0203ab60 62b60122  ..C..CC....`b.."
 80018a8 dff8c482 4ff40074 10464ff4 0071fef7  ....O..t.FO..q..
 80018b8 f1fea8f8 1a400022 4ff48071 0420fef7  .....@."O..q. ..
 80018c8 e9fe0122 10464ff4 8071fef7 e3fe0122  ...".FO..q....."
 80018d8 11460020 fef7defe 01220221 0020fef7  .F. .....".!. ..
 80018e8 d9fe0122 11460020 fef796fe 01220221  ...".F. .....".!
 80018f8 0020fef7 91fe0122 4ff40041 0020fef7  . ....."O..A. ..
 8001908 c9fe0122 10460821 fef7c4fe 02224ff4  ...".F.!....."O.
 8001918 00410020 fef780fe 02220821 0120fef7  .A. .....".!. ..
 8001928 7bfe2b6c 43f00103 2b644ff0 80430126  {.+lC...+dO..C.&
 8001938 03274ff0 ff3040f2 01116ff0 0042d862  .'O..0@...o..B.b
 8001948 1f811983 5a621e80 2b6c43f0 08032b64  ....Zb..+lC...+d
 8001958 754bd862 1f810020 19835a62 21461e80  uK.b... ..Zb!F..
 8001968 3246fef7 97fe0022 10464ff4 8061fef7  2F.....".FO..a..
 8001978 91fe2146 07220020 fef74efe 07224ff4  ..!F.". ..N.."O.
 8001988 80610020 fef748fe 684b0024 5c60684b  .a. ..H.hK.$\`hK
 8001998 5c60684b 5c60684b 5c606b6c 43f01003  \`hK\`hK\`klC...
 80019a8 6b640220 fef7b8fe 07ee900a 9fed637a  kd. ..........cz
 80019b8 634a644d f8ee676a 3146c6ee 877a0220  cJdM..gj1F...z. 
 80019c8 feeece7a 17ee903a 9bb21381 42f22c03  ...z...:....B.,.
 80019d8 14829482 93815c4b f02283f8 25235a68  ......\K."..%#Zh
 80019e8 42f02002 5a602246 fef754fe 32460421  B. .Z`"F..T.2F.!
 80019f8 3846fef7 4ffe2246 4ff40061 0220fef7  8F..O."FO..a. ..
 8001a08 49fe3246 4ff4a051 0220fef7 43fe4f4b  I.2FO..Q. ..C.OK
 8001a18 04221a83 02213246 3846fef7 3bfe2246  ."...!2F8F..;."F
 8001a28 31463846 fef736fe 09223146 3846fef7  1F8F..6.."1F8F..
 8001a38 f3fd0922 02213846 fef7eefd 2246c021  ...".!8F...."F.!
 8001a48 3046fef7 27fe2146 18222846 00f018ff  0F..'.!F."(F....
 8001a58 3f4bab60 3f4b6b60 c5e90644 3e4b2c62  ?K.`?Kk`...D>K,b
 8001a68 05f10c00 cdf83c80 19460134 202c0360  ......<..F.4 ,.`
 8001a78 184603f1 2003f8d1 0026c1f8 e0632c61  .F.. ....&...c,a
 8001a88 ae820120 fef748fe 1496adf8 54601121  ... ..H.....T`.!
 8001a98 42f21073 b0fbf3f3 4a1eb3fb f1f701fb  B..s....J.......
 8001aa8 1731d6b2 002961d1 7b1eb3f5 806f60d2  .1...)a.{....o`.
 8001ab8 c6ebc60e 0ef10303 db10dab2 b41a0133  ...............3
 8001ac8 e4b24ff4 7a7c0cfb 03fc2344 bcfbf3f3  ..O.z|....#D....
 8001ad8 b3f5617f 09d90ef1 ff32c2f3 c702531e  ..a......2....S.
 8001ae8 b41a0f2b e4b200f2 2f81631e 072b8cbf  ...+..../.c..+..
 8001af8 00230123 111901fb 0771b0fb f1f042f2  .#.#.....q....B.
 8001b08 10718842 35d1a3b3 0123adf8 50708df8  .q.B5....#..Pp..
 8001b18 54308df8 52208df8 53402ae0 00380240  T0..R ..S@*..8.@
 8001b28 003c0240 04ee0200 000c0040 9c220020  .<.@.......@.". 
 8001b38 c0220020 48120020 6c120020 0000e149  .". H.. l.. ...I
 8001b48 00100140 68000020 00e100e0 000c0240  ...@h.. .......@
 8001b58 61100008 b9080008 8c000020 40900200  a.......... @...
 8001b68 80a90300 00410a00 00040240 022a1146  .....A.....@.*.F
 8001b78 92d1bdf8 509009f1 ff391ffa 89f3b3f5  ....P....9......
 8001b88 806f36d2 9df854a0 0af1ff3a 5ffa8af3  .o6...T....:_...
 8001b98 032b2ed8 9df85260 013ef3b2 0f2b28d8  .+....R`.>...+(.
 8001ba8 9df85380 08f1ff38 5ffa88f3 072b20d8  ..S....8_....+ .
 8001bb8 8f4b904a 904c0027 1f60904b 1f60904b  .K.J.L.'.`.K.`.K
 8001bc8 1f60904b 1f60136c 43f00073 13646761  .`.K.`.lC..s.dga
 8001bd8 236823f0 02032360 236843f0 01032360  #h#...#`#hC...#`
 8001be8 0120fef7 cdfa0028 40f0b180 4ff40043  . .....(@...O..C
 8001bf8 23602b78 0bb90b23 2b70834b 7d4a834e  #`+x...#+p.K}J.N
 8001c08 00271f60 824b0024 0025c3e9 0045814b  .'.`.K.$.%...E.K
 8001c18 c3e90045 536c43f0 01035364 4ff0ff33  ...ESlC...SdO..3
 8001c28 f3620220 fef778fd 7b4b4000 b0fbf3f0  .b. ..x.{K@.....
 8001c38 012380b2 3085b382 3783b783 37847762  .#..0...7...7.wb
 8001c48 3380764b 1f70764b c3e90045 754b1f70  3.vK.pvK...EuK.p
 8001c58 754bc3e9 0045754b 02221a70 6a4a6b4b  uK...EuK.".pjJkK
 8001c68 dff89c91 586a1368 1060c31a 684899b2  ....Xj.h.`..hH..
 8001c78 d0e90023 541843f1 0005c0e9 0045fef7  ...#T.C......E..
 8001c88 d1fd72b6 5f4bd9f8 00201b68 9a4240f0  ..r._K... .h.B@.
 8001c98 d98062b6 5e4b5f49 d3e90067 d1e90023  ..b.^K_I...g...#
 8001ca8 9f4208bf 964234d3 0f9b0f9a 5b69604d  .B...B4.....[i`M
 8001cb8 83f40073 5361584b d5f81890 f3184ff0  ...sSaXK......O.
 8001cc8 000247eb 0202c1e9 00324c46 a846002c  ..G......2LF.F.,
 8001cd8 40f0a182 dff86881 4f4a0023 30463946  @.....h.OJ.#0F9F
 8001ce8 00f0e0fd 98f80030 8df85430 4f4b1490  .......0..T0OK..
 8001cf8 1b788df8 553014a8 8df85640 adf85840  .x..U0....V@..X@
 8001d08 fef762ff 2b78002b 40f0c182 012388f8  ..b.+x.+@....#..
 8001d18 0030484b c3e90067 404b1a78 002a00f0  .0HK...g@K.x.*..
 8001d28 f6824149 3c48d1e9 0021b21a 0c9267eb  ..AI<H...!....g.
 8001d38 01020d92 dde90c45 0021a942 08bfa042  .......E.!.B...B
 8001d48 8cd20022 1a7086e7 0a460b46 d2e63604  ...".p...F.F..6.
 8001d58 46ea0a66 46ea0909 612349ea 08562360  F..fF...a#I..V#`
 8001d68 e6612368 23f00103 23603846 fef708fa  .a#h#...#`8F....
 8001d78 00283ff4 3bafd4f8 003223f4 7c5323f0  .(?.;....2#.|S#.
 8001d88 0e0343f4 606343f0 0103c4f8 00326ff0  ..C.`cC......2o.
 8001d98 7043c4f8 04720122 c4f80c32 264bc4f8  pC...r."...2&K..
 8001da8 1432c4f8 4072c4f8 4472c4f8 1c22d4f8  .2..@r..Dr..."..
 8001db8 003223f0 0103c4f8 00326369 43f01203  .2#......2ciC...
 8001dc8 63611e4b 702183f8 13138021 83f81413  ca.Kp!.....!....
 8001dd8 902183f8 15134ff4 00211960 4ff48011  .!....O..!.`O...
 8001de8 19604ff4 00111960 c4f88021 01e700bf  .`O....`...!....
 8001df8 e4220020 00380240 00640040 e8220020  .". .8.@.d.@.". 
 8001e08 90120020 94120020 10060020 00000140  ... ... ... ...@
 8001e18 30060020 18060020 40420f00 14060020  0.. ... @B..... 
 8001e28 20060020 29060020 08060020 00000020   .. ).. ... ... 
 8001e38 68000020 38060020 aaaaaa0a 00e100e0  h.. 8.. ........
 8001e48 8c040020 d9f80020 b64b03eb 02130fcb  ... ... .K......
 8001e58 10ac84e8 0f00d9f8 00300133 c9f80030  .........0.3...0
 8001e68 d9f80030 3f2bc4bf 0023c9f8 003062b6  ...0?+...#...0b.
 8001e78 109dc5f3 c012002a 00f0af80 c5f3c03b  .......*.......;
 8001e88 c5f30624 002dbff6 fcae15f0 c0430593  ...$.-.......C..
 8001e98 7ff4f7ae 9df84c30 002b3ff4 f2aebbf1  ......L0.+?.....
 8001ea8 020fdff8 88a204d0 9af80010 a1427ff4  .............B..
 8001eb8 e8ae05f0 7f010691 002a00f0 9280c5f3  .........*......
 8001ec8 0748994a 11685268 04926406 069a0391  .H.J.hRh..d.....
 8001ed8 44ea0b44 44ea8244 1caa1344 44ea0804  D..DD..D...DD...
 8001ee8 13f82d6c f3090793 00f09480 00220023  ..-l.........".#
 8001ef8 cde91423 069b0093 daf80470 8b485b46  ...#.......p.H[F
 8001f08 424614a9 b8470028 3ff4bbae daf81870  BF...G.(?......p
 8001f18 002f6dd1 2046fef7 19fd0746 00283ff4  ./m. F.....F.(?.
 8001f28 b0aecaf8 1800dde9 143a0024 4ff6ff70  .........:.$O..p
 8001f38 c4f1200c 23fa04f1 a4f12002 0afa0cfc  .. .#..... .....
 8001f48 41ea0c01 2afa02f2 1143c9b2 08340e93  A...*....C...4..
 8001f58 fef732fa 402c0e9b ead1b882 fb7d06f0  ..2.@,.......}..
 8001f68 1f04c3f3 8403e31a 9bb20ffa 83fcbcf1  ................
 8001f78 000fd7e9 0201bcbf 20330ffa 83fcc5f3  ........ 3......
 8001f88 04630e93 50ea0103 14d0039b 1b1a0893  .c..P...........
 8001f98 049b6748 63eb0103 0993dde9 08230021  ..gHc........#.!
 8001fa8 994208bf 904205d3 079b002b 70d0bcf1  .B...B.....+p...
 8001fb8 010f39dd fb7d66f3 86036ff3 c713fb75  ..9..}f...o....u
 8001fc8 3846fef7 0df9079b 73bbfb7d c3f38402  8F......s..}....
 8001fd8 013262f3 8603fb75 53e64ff0 020b1446  .2b....uS.O....F
 8001fe8 50e7c5f3 0f286a06 08bf08f0 030868e7  P....(j.......h.
 8001ff8 3b699c42 97d03f68 002ff9d1 2046fef7  ;i.B..?h./.. F..
 8002008 a5fc0746 00283ff4 3cae484b 9a693a60  ...F.(?.<.HK.i:`
 8002018 9f6188e7 daf81870 002f3ff4 32ae3b69  .a.....p./?.2.;i
 8002028 9c429bd0 3f68f7e7 b309022b 30d0039b  .B..?h.....+0...
 8002038 bb60049b fb600021 142217a8 00f020fc  .`...`.!.".... .
 8002048 039b1493 049b1593 11ab1693 9df84c30  ..............L0
 8002058 3648adf8 6680013b dbb2adf8 64300e9b  6H..f..;....d0..
 8002068 8df86a30 069b8df8 6b308df8 68b08df8  ..j0....k0..h...
 8002078 69408368 14a99847 fb7dc3f3 84020132  i@.h...G.}.....2
 8002088 62f38603 fb75fb8a 03f4f843 fb82f8e5  b....u.....C....
 8002098 fb7dc6f3 4012b2eb d31f7ff4 f2adc3f3  .}..@...........
 80020a8 8403a342 7ff4edad 079b9df8 4c20b609  ...B........L ..
 80020b8 4bb3022e 3ed1032a 7ff6e3ad 039bbb60  K...>..*.......`
 80020c8 033a049b fb60d2b2 0df14601 3846fef7  .:...`....F.8F..
 80020d8 a3f80028 03da3846 fef782f8 cce79df8  ...(..8F........
 80020e8 4c20bdf8 44303b83 033ad2b2 0df14601  L ..D0;..:....F.
 80020f8 b88afef7 72f9fb7d b882da43 c2f3c012  ....r..}...C....
 8002108 62f3c713 67e7aeb9 013ad2b2 11a93846  b...g....:....8F
 8002118 fef782f8 0028dedb 9df84c20 013ad2b2  .....(....L .:..
 8002128 11a9e5e7 40060020 30060020 68000020  ....@.. 0.. h.. 
 8002138 80841e00 f98ad7f8 04c0c1f3 0901501e  ..............P.
 8002148 0529c0b2 41d80d46 11ae0023 07f11a0e  .)..A..F...#....
 8002158 834208d2 16f801ab 0ef805a0 01350133  .B...........5.3
 8002168 062ddbb2 f4d1039d 1495049d 15959842  .-.............B
 8002178 07f11a05 cde9165c 83bf1cad 5b192c3b  .......\....[.,;
 8002188 00231893 0e9b8df8 6a30069b 8df86b30  .#......j0....k0
 8002198 01448df8 68b08df8 69400023 adf86410  .D..h...i@.#..d.
 80021a8 adf86680 b88a7b60 013a11a9 fef715f9  ..f...{`.:......
 80021b8 3b8bb882 834203d1 5c4814a9 83689847  ;....B..\H...h.G
 80021c8 14a95a48 fef74ef9 56e7bcf1 000f1fd1  ..ZH..N.V.......
 80021d8 6346c8e7 1c351e46 3368002b fad14d1b  cF...5.F3h.+..M.
 80021e8 2b1df318 0df1440a 0793059e 9df814e0  +.....D.........
 80021f8 ae191b2e 7346b6d8 7045b4d9 079e1af8  ....sF..pE......
 8002208 013b06f8 013b059b 07960133 0593ece7  .;...;.....3....
 8002218 66460625 e0e7d4e9 0232f31a 0a9367eb  fF.%.....2....g.
 8002228 02030b93 dde90a01 414a0023 8b4208bf  ........AJ.#.B..
 8002238 824229d2 d8f81830 9c422046 14d1fdf7  .B)....0.B F....
 8002248 cfffd8f8 1830d3f8 0090d8f8 0c30c8f8  .....0.......0..
 8002258 18902360 b8f81230 c8f80c40 013ba8f8  ..#`...0...@.;..
 8002268 12304b46 1c4632e5 fdf7baff 2368d8f8  .0KF.F2.....#h..
 8002278 0c20c9f8 00302260 b8f81220 c8f80c40  . ...0"`... ...@
 8002288 013aa8f8 1220ede7 2368a146 eae700f1  .:... ..#h.F....
 8002298 070a4fea da0a1ffa 8af9264d b9f1070f  ..O.......&M....
 80022a8 45ea0305 30d9dff8 a0b04ff6 ff732249  E...0.....O..s"I
 80022b8 c4f12000 a4f12002 e1400bfa 00f00143  .. ... ..@.....C
 80022c8 2bfa02f2 11431846 c9b2fef7 75f80834  +....C.F....u..4
 80022d8 402c0346 ebd11ffa 8af21849 fef77df8  @,.F.......I..}.
 80022e8 0246174c 154bcdf8 00902146 2846fef7  .F.L.K....!F(F..
 80022f8 49fb2378 0133dbb2 1f2b88bf 00230028  I.#x.3...+...#.(
 8002308 23703ff7 06ad01e5 4ff6ff72 e9e7084b  #p?.....O..r...K
 8002318 0024bc42 08bfb342 bff4a0ac 094b1b68  .$.B...B.....K.h
 8002328 01333ff4 9bacfef7 bff800bf 68000020  .3?.........h.. 
 8002338 80841e00 00550118 f1c6a7c1 8d040020  .....U......... 
 8002348 98120020 00400008 d068080f 70470000  ... .@...h..pG..
 8002358 08b50348 fef716f9 024b3822 1a6108bd  ...H.....K8".a..
 8002368 c0650040 00640040 08b50348 fef70af9  .e.@.d.@...H....
 8002378 024b3822 da6008bd b0650040 00640040  .K8".`...e.@.d.@
 8002388 4c4b1a68 4c4b2de9 f04103eb 02130fcb  LK.hLK-..A......
 8002398 86b002ad 85e80f00 484b9a68 02f0e052  ........HK.h...R
 80023a8 b2f1e05f 1ad09a68 c2f38062 8df80420  ..._...h...b... 
 80023b8 9a689b68 c2f3c062 c3f30073 8df80520  .h.h...b...s... 
 80023c8 8df80630 3d4b9a68 50012ad5 3c4a1278  ...0=K.hP.*.<J.x
 80023d8 42b12946 0020fef7 81f81fe0 384b0122  B.)F. ......8K."
 80023e8 1a70efe7 9df80520 029c42b9 d3f89001  .p..... ..B.....
 80023f8 fef7bcf8 01462046 fef7ecf8 70b19df8  .....F F....p...
 8002408 0630002b e5d12d4b d3f8a001 fef7aef8  .0.+..-K........
 8002418 01462046 fef7def8 0028dad1 06b0bde8  .F F.....(......
 8002428 f0819a68 11011dd5 254a1478 14b12946  ...h....%J.x..)F
 8002438 0120d0e7 029e01af 9846012c 0ed0e35d  . .......F.,...]
 8002448 63b904f1 18021201 58f80200 fef78ef8  c.......X.......
 8002458 01463046 fef7bef8 0028dfd0 0134032c  .F0F.....(...4.,
 8002468 ebd1e4e7 9a68d200 d8d5154a 127812b1  .....h.....J.x..
 8002478 29460220 afe79df8 0420029c 4ab9d3f8  )F. ..... ..J...
 8002488 8001fef7 73f80146 2046fef7 a3f80028  ....s..F F.....(
 8002498 c4d09df8 0530002b ead1084b d3f89001  .....0.+...K....
 80024a8 fef764f8 01462046 fef794f8 0028dfd1  ..d..F F.....(..
 80024b8 b4e700bf e4220020 400a0020 00640040  .....". @.. .d.@
 80024c8 440e0020 1b4b1988 89b20a06 10b512d5  D.. .K..........
 80024d8 194a1a48 54684068 844224d0 5068184c  .J.HTh@h.B$.Ph.L
 80024e8 205c9880 50680130 50605068 b0f5805f   \..Ph.0P`Ph..._
 80024f8 01db0020 506011f0 280f13d0 1a881149  ... P`..(......I
 8002508 22f02802 1204120c 1a809888 0e4b5a68  ".(..........KZh
 8002518 88545a68 01325a60 5a68b2f5 806fa4bf  .TZh.2Z`Zh...o..
 8002528 00225a60 10bd9a89 22f08002 1204120c  ."Z`....".......
 8002538 9a81e0e7 00100140 9c220020 c0220020  .......@.". .". 
 8002548 99120020 450e0020 6c120020 094970b5  ... E.. l.. .Ip.
 8002558 00220a23 01250c46 0e6805fa 03f00642  .".#.%.F.h.....B
 8002568 03d04e69 304218bf 02430133 102b6261  ..Ni0B...C.3.+ba
 8002578 f2d170bd 003c0140 094970b5 00220523  ..p..<.@.Ip..".#
 8002588 01250c46 0e6805fa 03f00642 03d04e69  .%.F.h.....B..Ni
 8002598 304218bf 02430133 0a2b6261 f2d170bd  0B...C.3.+ba..p.
 80025a8 003c0140 014b1022 5a617047 003c0140  .<.@.K."ZapG.<.@
 80025b8 014b0822 5a617047 003c0140 014b0422  .K."ZapG.<.@.K."
 80025c8 5a617047 003c0140 014b0222 5a617047  ZapG.<.@.K."ZapG
 80025d8 003c0140 014b0122 5a617047 003c0140  .<.@.K."ZapG.<.@
 80025e8 08b5234a 234b2449 8b4239d3 234b244a  ..#J#K$I.B9.#K$J
 80025f8 00219342 39d32349 d1f88830 43f47003  .!.B9.#I...0C.p.
 8002608 c1f88830 204b1a68 002042f0 01021a60  ...0 K.h. B....`
 8002618 98609a68 42f06052 9a601a68 22f08672  .`.hB.`R.`.h"..r
 8002628 22f48032 1a60d860 1a6c1848 42f08052  "..2.`.`.l.HB..R
 8002638 1a640268 42f44042 02609a68 9a609a68  .d.hB.@B.`.h.`.h
 8002648 42f46042 9a609a68 42f4e052 9a6040f2  B.`B.`.hB..R.`@.
 8002658 0272c3f8 00244ff0 00638b60 fff7bef8  .r...$O..c.`....
 8002668 52f8040b 43f8040b bee743f8 041bc0e7  R...C.....C.....
 8002678 e42b0008 00000020 68000020 68000020  .+..... h.. h.. 
 8002688 f8220020 00ed00e0 00380240 00700040  .". .....8.@.p.@
 8002698 0a4a1168 034609b9 09491160 10680949  .J.h.F...I.`.h.I
 80026a8 03440733 23f00703 8b4229bf 064b1360  .D.3#....B)..K.`
 80026b8 0c220020 28bf1a60 704700bf 400e0020  .". (..`pG..@.. 
 80026c8 f8220020 00fc0120 f4220020 fee70000  .". ... .". ....
 80026d8 38b50546 002945d0 51f8043c 0c1f002b  8..F.)E.Q..<...+
 80026e8 b8bfe418 00f0acf8 1f4a1368 104633b9  .........J.h.F3.
 80026f8 63601460 2846bde8 384000f0 a2b8a342  c`.`(F..8@.....B
 8002708 0cd92168 62189342 04bf1a68 5b686360  ..!hb..B...h[hc`
 8002718 04bf5218 22600460 ece71346 5a680ab1  ..R."`.`...FZh..
 8002728 a242fad9 19685818 a0420bd1 20680144  .B...hX..B.. h.D
 8002738 58188242 1960ddd1 10685268 5a600144  X..B.`...hRhZ`.D
 8002748 1960d7e7 02d90c23 2b60d3e7 20682118  .`.....#+`.. h!.
 8002758 8a4204bf 11685268 626004bf 09182160  .B...hRhb`....!`
 8002768 5c60c7e7 38bd00bf ec220020 f8b5cd1c  \`..8....". ....
 8002778 25f00305 08350c2d 38bf0c25 002d0646  %....5.-8..%.-.F
 8002788 01dba942 03d90c23 33600020 f8bd00f0  ...B...#3`. ....
 8002798 57f82149 0a681446 9cb9204f 3b6823b9  W.!I.h.F.. O;h#.
 80027a8 21463046 00f03cf8 38602946 304600f0  !F0F..<.8`)F0F..
 80027b8 37f8431c 23d10c23 33603046 00f041f8  7.C.#..#3`0F..A.
 80027c8 e3e72368 5b1b17d4 0b2b03d9 23601c44  ..#h[....+..#`.D
 80027d8 256004e0 6368a242 0cbf0b60 53603046  %`..ch.B...`S`0F
 80027e8 00f02ff8 04f10b00 231d20f0 0700c21a  ../.....#. .....
 80027f8 ccd01b1a a350c9e7 22466468 cce7c41c  .....P.."Fdh....
 8002808 24f00304 a042e3d0 211a3046 00f008f8  $....B..!.0F....
 8002818 0130ddd1 cfe700bf ec220020 f0220020  .0.......". .". 
 8002828 38b5064c 00230546 08462360 fff730ff  8..L.#.F.F#`..0.
 8002838 431c02d1 236803b1 2b6038bd f4220020  C...#h..+`8..". 
 8002848 70477047 024b0146 1868fff7 8fbf00bf  pGpG.K.F.h......
 8002858 04000020 024b0146 1868fff7 39bf00bf  ... .K.F.h..9...
 8002868 04000020 0a449142 00f1ff33 00d17047  ... .D.B...3..pG
 8002878 10b511f8 014b03f8 014f9142 f9d110bd  .....K...O.B....
 8002888 02440346 934200d1 704703f8 011bf9e7  .D.F.B..pG......
 8002898 10f8012b 11f8013b 012a28bf 9a42f7d0  ...+...;.*(..B..
 80028a8 d01a7047 53b94ab9 002908bf 00281cbf  ..pGS.J..)...(..
 80028b8 4ff0ff31 4ff0ff30 00f066b9 adf1080c  O..1O..0..f.....
 80028c8 6de904ce 00f006f8 ddf804e0 dde90223  m..............#
 80028d8 04b07047 2de9f04f 099f1546 04468e46  ..pG-..O...F.F.F
 80028e8 1e46002b 40f0cc80 8a42b2fa 82fc4cd9  .F.+@....B....L.
 80028f8 bcf1000f 0bd0ccf1 200801fa 0cfe20fa  ........ ..... .
 8002908 08f802fa 0cf548ea 0e0e00fa 0cf44fea  ......H.......O.
 8002918 15491ffa 85f8befb f9fa210c 09fb1ae3  .I........!.....
 8002928 0afb08fb 41ea0343 9b452ad9 eb180af1  ....A..C.E*.....
 8002938 ff3004d2 9b4502d9 aaf10200 2b44a3eb  .0...E......+D..
 8002948 0b03a4b2 b3fbf9f2 09fb1233 02fb08f8  ...........3....
 8002958 44ea0344 a04516d9 2c1902f1 ff3303d2  D..D.E..,....3..
 8002968 a04501d9 931e2c44 a4eb0804 43ea0040  .E....,D....C..@
 8002978 27b124fa 0cf40023 3c607b60 3146bde8  '.$....#<`{`1F..
 8002988 f08f5046 dbe71346 eee702b9 ffdebcf1  ..PF...F........
 8002998 000f2ed1 8b1a0126 4fea154e aab2b3fb  .......&O..N....
 80029a8 fef8210c 0efb1833 08fb02f9 41ea0343  ..!....3....A..C
 80029b8 994561d9 eb1808f1 ff3004d2 994502d9  .Ea......0...E..
 80029c8 a8f10200 2b44a3eb 0903a4b2 b3fbfef1  ....+D..........
 80029d8 0efb1133 4a4344ea 0344a242 4ed92c19  ...3JCD..D.BN.,.
 80029e8 01f1ff33 03d2a242 01d98b1e 2c44a41a  ...3...B....,D..
 80029f8 bce7ccf1 200e02fa 0cf521fa 0ef901fa  .... .....!.....
 8002a08 0cf320fa 0efe4eea 03034fea 154800fa  .. ...N...O..H..
 8002a18 0cf4b9fb f8f11ffa 85fe08fb 1192180c  ................
 8002a28 01fb0ef6 40ea0242 964221d9 aa1801f1  ....@..B.B!.....
 8002a38 ff3003d2 964201d9 881e2a44 921b9bb2  .0...B....*D....
 8002a48 b2fbf8f9 08fb1922 09fb0efe 43ea0243  ......."....C..C
 8002a58 9e450fd9 eb1809f1 ff3604d2 9e4502d9  .E.......6...E..
 8002a68 a9f10206 2b44a3eb 0e0346ea 004693e7  ....+D....F..F..
 8002a78 0846e3e7 4e46f6e7 4046a4e7 0b46b6e7  .F..NF..@F...F..
 8002a88 8b4205d9 0fb1c7e9 00010026 304675e7  .B.........&0Fu.
 8002a98 b3fa83fc bcf1000f 0fd18b42 01d38242  ...........B...B
 8002aa8 09d8841a 61eb030e 0120002f 6ad0c7e9  ....a.... ./j...
 8002ab8 004e0026 62e76046 f7e7ccf1 200e03fa  .N.&b.`F.... ...
 8002ac8 0cf322fa 0ef521fa 0ef41d43 01fa0cf3  .."...!....C....
 8002ad8 20fa0ef1 0b434fea 154a00fa 0cf6b4fb   ....CO..J......
 8002ae8 faf91ffa 85f80afb 19401c0c 09fb08f1  .........@......
 8002af8 44ea0044 a14202fa 0cf23fd9 2c1909f1  D..D.B....?.,...
 8002b08 ff3004d2 a14202d9 a9f10200 2c44641a  .0...B......,Dd.
 8002b18 9bb2b4fb faf90afb 194409fb 08f843ea  .........D....C.
 8002b28 04418845 2cd96918 09f1ff33 04d28845  .A.E,.i....3...E
 8002b38 02d9a9f1 02032944 43ea0040 a1eb0801  ......)DC..@....
 8002b48 a0fb0289 4945c246 4c4602d3 06d14645  ....IE.FLF....FE
 8002b58 04d2b8eb 020a69eb 05040138 97b1b6eb  ......i....8....
 8002b68 0a0361eb 040606fa 0efe23fa 0cf34eea  ..a.......#...N.
 8002b78 030326fa 0cf6c7e9 00369ae7 4846c6e7  ..&......6..HF..
 8002b88 4b46d9e7 3e46f9e6 704700bf           KF..>F..pG..    
Contents of section .ARM.exidx:
 8002b94 48fdff7f 01000000                    H.......        
Contents of section .rodata:
 8002b9c 00000240 00040240 00080240 000c0240  ...@...@...@...@
 8002bac 00100240 00140240 00180240 001c0240  ...@...@...@...@
 8002bbc 00200240 00240240 00280240 ffffffff  . .@.$.@.(.@....
 8002bcc 62726169 6e5f3230 31395f6c 6f616465  brain_2019_loade
 8002bdc 72004944 00000000                    r.ID....        
Contents of section .data:
 20000000 01000000 08000020 00000000 00000000  ....... ........
 20000010 00000000 00000000 00000000 00000000  ................
 20000020 00000000 00000000 00000000 00000000  ................
 20000030 00000000 00000000 00000000 00000000  ................
 20000040 00000000 00000000 00000000 00000000  ................
 20000050 00000000 00000000 00000000 00000000  ................
 20000060 00000000 00000000                    ........        
Contents of section .comment:
 0000 4743433a 20284172 63682052 65706f73  GCC: (Arch Repos
 0010 69746f72 79292038 2e332e30 00        itory) 8.3.0.   
Contents of section .ARM.attributes:
 0000 41310000 00616561 62690001 27000000  A1...aeabi..'...
 0010 0537452d 4d00060d 074d0902 0a061204  .7E-M....M......
 0020 14011501 17031801 1a011b01 1c011e04  ................
 0030 2201                                 ".              
Contents of section .debug_frame:
 0000 0c000000 ffffffff 0100027c 0e0c0d00  ...........|....
 0010 20000000 00000000 00000000 1a000000   ...............
 0020 410e1083 04840385 028e014a cec5c4c3  A..........J....
 0030 0e000000 24000000 00000000 00000000  ....$...........
 0040 b8000000 440e1084 04850386 028e017f  ....D...........
 0050 0acec6c5 c40e0042 0b000000 0c000000  .......B........
 0060 ffffffff 0100027c 0e0c0d00 24000000  .......|....$...
 0070 5c000000 d8260008 9c000000 410e1083  \....&......A...
 0080 04840385 028e0154 0acec5c4 c30e0042  .......T.......B
 0090 0b000000 0c000000 ffffffff 0100027c  ...............|
 00a0 0e0c0d00 1c000000 94000000 74270008  ............t'..
 00b0 b4000000 410e1883 06840585 04860387  ....A...........
 00c0 028e0100 0c000000 ffffffff 0100027c  ...............|
 00d0 0e0c0d00 18000000 c4000000 28280008  ............((..
 00e0 20000000 410e1083 04840385 028e0100   ...A...........
 00f0 0c000000 ffffffff 0100027c 0e0c0d00  ...........|....
 0100 0c000000 f0000000 48280008 02000000  ........H(......
 0110 0c000000 f0000000 4a280008 02000000  ........J(......
 0120 0c000000 ffffffff 0100027c 0e0c0d00  ...........|....
 0130 0c000000 20010000 4c280008 10000000  .... ...L(......
 0140 0c000000 20010000 5c280008 10000000  .... ...\(......
 0150 0c000000 ffffffff 0100027c 0e0c0d00  ...........|....
 0160 14000000 50010000 6c280008 1c000000  ....P...l(......
 0170 470e0884 028e0100 0c000000 ffffffff  G...............
 0180 0100027c 0e0c0d00 0c000000 78010000  ...|........x...
 0190 88280008 10000000 0c000000 ffffffff  .(..............
 01a0 0100027c 0e0c0d00 0c000000 98010000  ...|............
 01b0 98280008 14000000 0c000000 ffffffff  .(..............
 01c0 0100027c 0e0c0d00 18000000 b8010000  ...|............
 01d0 ac280008 30000000 500e108e 0347ce0e  .(..0...P....G..
 01e0 10000000 0c000000 ffffffff 0100027c  ...............|
 01f0 0e0c0d00 24000000 e4010000 dc280008  ....$........(..
 0200 b4020000 420e2484 09850886 07870688  ....B.$.........
 0210 0589048a 038b028e 01000000           ............    

Disassembly of section .isr_vector:

08000000 <_stext>:
 8000000:	20020000 	andcs	r0, r2, r0
 8000004:	080025e9 	stmdaeq	r0, {r0, r3, r5, r6, r7, r8, sl, sp}
 8000008:	080026d5 	stmdaeq	r0, {r0, r2, r4, r6, r7, r9, sl, sp}
 800000c:	080026d5 	stmdaeq	r0, {r0, r2, r4, r6, r7, r9, sl, sp}
 8000010:	080026d5 	stmdaeq	r0, {r0, r2, r4, r6, r7, r9, sl, sp}
 8000014:	080026d5 	stmdaeq	r0, {r0, r2, r4, r6, r7, r9, sl, sp}
 8000018:	080026d5 	stmdaeq	r0, {r0, r2, r4, r6, r7, r9, sl, sp}
	...
 800002c:	080026d5 	stmdaeq	r0, {r0, r2, r4, r6, r7, r9, sl, sp}
 8000030:	080026d5 	stmdaeq	r0, {r0, r2, r4, r6, r7, r9, sl, sp}
 8000034:	00000000 	andeq	r0, r0, r0
 8000038:	080026d5 	stmdaeq	r0, {r0, r2, r4, r6, r7, r9, sl, sp}
 800003c:	080026d5 	stmdaeq	r0, {r0, r2, r4, r6, r7, r9, sl, sp}
 8000040:	080026d5 	stmdaeq	r0, {r0, r2, r4, r6, r7, r9, sl, sp}
 8000044:	080026d5 	stmdaeq	r0, {r0, r2, r4, r6, r7, r9, sl, sp}
 8000048:	080026d5 	stmdaeq	r0, {r0, r2, r4, r6, r7, r9, sl, sp}
 800004c:	080026d5 	stmdaeq	r0, {r0, r2, r4, r6, r7, r9, sl, sp}
 8000050:	080026d5 	stmdaeq	r0, {r0, r2, r4, r6, r7, r9, sl, sp}
 8000054:	080026d5 	stmdaeq	r0, {r0, r2, r4, r6, r7, r9, sl, sp}
 8000058:	080025dd 	stmdaeq	r0, {r0, r2, r3, r4, r6, r7, r8, sl, sp}
 800005c:	080025d1 	stmdaeq	r0, {r0, r4, r6, r7, r8, sl, sp}
 8000060:	080025c5 	stmdaeq	r0, {r0, r2, r6, r7, r8, sl, sp}
 8000064:	080025b9 	stmdaeq	r0, {r0, r3, r4, r5, r7, r8, sl, sp}
 8000068:	080025ad 	stmdaeq	r0, {r0, r2, r3, r5, r7, r8, sl, sp}
 800006c:	080026d5 	stmdaeq	r0, {r0, r2, r4, r6, r7, r9, sl, sp}
 8000070:	080026d5 	stmdaeq	r0, {r0, r2, r4, r6, r7, r9, sl, sp}
 8000074:	080026d5 	stmdaeq	r0, {r0, r2, r4, r6, r7, r9, sl, sp}
 8000078:	080026d5 	stmdaeq	r0, {r0, r2, r4, r6, r7, r9, sl, sp}
 800007c:	080026d5 	stmdaeq	r0, {r0, r2, r4, r6, r7, r9, sl, sp}
 8000080:	080026d5 	stmdaeq	r0, {r0, r2, r4, r6, r7, r9, sl, sp}
 8000084:	080026d5 	stmdaeq	r0, {r0, r2, r4, r6, r7, r9, sl, sp}
 8000088:	080026d5 	stmdaeq	r0, {r0, r2, r4, r6, r7, r9, sl, sp}
 800008c:	08002389 	stmdaeq	r0, {r0, r3, r7, r8, r9, sp}
 8000090:	08002371 	stmdaeq	r0, {r0, r4, r5, r6, r8, r9, sp}
 8000094:	08002359 	stmdaeq	r0, {r0, r3, r4, r6, r8, r9, sp}
 8000098:	08002355 	stmdaeq	r0, {r0, r2, r4, r6, r8, r9, sp}
 800009c:	08002581 	stmdaeq	r0, {r0, r7, r8, sl, sp}
 80000a0:	080026d5 	stmdaeq	r0, {r0, r2, r4, r6, r7, r9, sl, sp}
 80000a4:	080026d5 	stmdaeq	r0, {r0, r2, r4, r6, r7, r9, sl, sp}
 80000a8:	080026d5 	stmdaeq	r0, {r0, r2, r4, r6, r7, r9, sl, sp}
 80000ac:	080026d5 	stmdaeq	r0, {r0, r2, r4, r6, r7, r9, sl, sp}
 80000b0:	080026d5 	stmdaeq	r0, {r0, r2, r4, r6, r7, r9, sl, sp}
 80000b4:	080026d5 	stmdaeq	r0, {r0, r2, r4, r6, r7, r9, sl, sp}
 80000b8:	080026d5 	stmdaeq	r0, {r0, r2, r4, r6, r7, r9, sl, sp}
 80000bc:	080026d5 	stmdaeq	r0, {r0, r2, r4, r6, r7, r9, sl, sp}
 80000c0:	080026d5 	stmdaeq	r0, {r0, r2, r4, r6, r7, r9, sl, sp}
 80000c4:	080026d5 	stmdaeq	r0, {r0, r2, r4, r6, r7, r9, sl, sp}
 80000c8:	080026d5 	stmdaeq	r0, {r0, r2, r4, r6, r7, r9, sl, sp}
 80000cc:	080026d5 	stmdaeq	r0, {r0, r2, r4, r6, r7, r9, sl, sp}
 80000d0:	080026d5 	stmdaeq	r0, {r0, r2, r4, r6, r7, r9, sl, sp}
 80000d4:	080024cd 	stmdaeq	r0, {r0, r2, r3, r6, r7, sl, sp}
 80000d8:	080026d5 	stmdaeq	r0, {r0, r2, r4, r6, r7, r9, sl, sp}
 80000dc:	080026d5 	stmdaeq	r0, {r0, r2, r4, r6, r7, r9, sl, sp}
 80000e0:	08002555 	stmdaeq	r0, {r0, r2, r4, r6, r8, sl, sp}
 80000e4:	080026d5 	stmdaeq	r0, {r0, r2, r4, r6, r7, r9, sl, sp}
 80000e8:	080026d5 	stmdaeq	r0, {r0, r2, r4, r6, r7, r9, sl, sp}
 80000ec:	080026d5 	stmdaeq	r0, {r0, r2, r4, r6, r7, r9, sl, sp}
 80000f0:	080026d5 	stmdaeq	r0, {r0, r2, r4, r6, r7, r9, sl, sp}
 80000f4:	080026d5 	stmdaeq	r0, {r0, r2, r4, r6, r7, r9, sl, sp}
 80000f8:	080026d5 	stmdaeq	r0, {r0, r2, r4, r6, r7, r9, sl, sp}
 80000fc:	080026d5 	stmdaeq	r0, {r0, r2, r4, r6, r7, r9, sl, sp}
 8000100:	080026d5 	stmdaeq	r0, {r0, r2, r4, r6, r7, r9, sl, sp}
 8000104:	080026d5 	stmdaeq	r0, {r0, r2, r4, r6, r7, r9, sl, sp}
 8000108:	080026d5 	stmdaeq	r0, {r0, r2, r4, r6, r7, r9, sl, sp}
 800010c:	080026d5 	stmdaeq	r0, {r0, r2, r4, r6, r7, r9, sl, sp}
 8000110:	080026d5 	stmdaeq	r0, {r0, r2, r4, r6, r7, r9, sl, sp}
 8000114:	080026d5 	stmdaeq	r0, {r0, r2, r4, r6, r7, r9, sl, sp}
 8000118:	080026d5 	stmdaeq	r0, {r0, r2, r4, r6, r7, r9, sl, sp}
 800011c:	080026d5 	stmdaeq	r0, {r0, r2, r4, r6, r7, r9, sl, sp}
 8000120:	080026d5 	stmdaeq	r0, {r0, r2, r4, r6, r7, r9, sl, sp}
 8000124:	080026d5 	stmdaeq	r0, {r0, r2, r4, r6, r7, r9, sl, sp}
 8000128:	080026d5 	stmdaeq	r0, {r0, r2, r4, r6, r7, r9, sl, sp}
 800012c:	080026d5 	stmdaeq	r0, {r0, r2, r4, r6, r7, r9, sl, sp}
 8000130:	080026d5 	stmdaeq	r0, {r0, r2, r4, r6, r7, r9, sl, sp}
 8000134:	080026d5 	stmdaeq	r0, {r0, r2, r4, r6, r7, r9, sl, sp}
 8000138:	080026d5 	stmdaeq	r0, {r0, r2, r4, r6, r7, r9, sl, sp}
 800013c:	080026d5 	stmdaeq	r0, {r0, r2, r4, r6, r7, r9, sl, sp}
 8000140:	080026d5 	stmdaeq	r0, {r0, r2, r4, r6, r7, r9, sl, sp}
 8000144:	080026d5 	stmdaeq	r0, {r0, r2, r4, r6, r7, r9, sl, sp}
 8000148:	080026d5 	stmdaeq	r0, {r0, r2, r4, r6, r7, r9, sl, sp}
 800014c:	080026d5 	stmdaeq	r0, {r0, r2, r4, r6, r7, r9, sl, sp}
 8000150:	080026d5 	stmdaeq	r0, {r0, r2, r4, r6, r7, r9, sl, sp}
 8000154:	080026d5 	stmdaeq	r0, {r0, r2, r4, r6, r7, r9, sl, sp}
 8000158:	080026d5 	stmdaeq	r0, {r0, r2, r4, r6, r7, r9, sl, sp}
 800015c:	080026d5 	stmdaeq	r0, {r0, r2, r4, r6, r7, r9, sl, sp}
 8000160:	080026d5 	stmdaeq	r0, {r0, r2, r4, r6, r7, r9, sl, sp}
 8000164:	080026d5 	stmdaeq	r0, {r0, r2, r4, r6, r7, r9, sl, sp}
 8000168:	080026d5 	stmdaeq	r0, {r0, r2, r4, r6, r7, r9, sl, sp}
 800016c:	080026d5 	stmdaeq	r0, {r0, r2, r4, r6, r7, r9, sl, sp}
 8000170:	080026d5 	stmdaeq	r0, {r0, r2, r4, r6, r7, r9, sl, sp}
 8000174:	080026d5 	stmdaeq	r0, {r0, r2, r4, r6, r7, r9, sl, sp}
 8000178:	080026d5 	stmdaeq	r0, {r0, r2, r4, r6, r7, r9, sl, sp}
 800017c:	080026d5 	stmdaeq	r0, {r0, r2, r4, r6, r7, r9, sl, sp}
 8000180:	080026d5 	stmdaeq	r0, {r0, r2, r4, r6, r7, r9, sl, sp}
 8000184:	080026d5 	stmdaeq	r0, {r0, r2, r4, r6, r7, r9, sl, sp}

Disassembly of section .text:

08000188 <waitMSRINAKBitStateChange.constprop.29>:
 8000188:	b537      	push	{r0, r1, r2, r4, r5, lr}
 800018a:	490d      	ldr	r1, [pc, #52]	; (80001c0 <waitMSRINAKBitStateChange.constprop.29+0x38>)
 800018c:	4d0d      	ldr	r5, [pc, #52]	; (80001c4 <waitMSRINAKBitStateChange.constprop.29+0x3c>)
 800018e:	f44f 737a 	mov.w	r3, #1000	; 0x3e8
 8000192:	2400      	movs	r4, #0
 8000194:	684a      	ldr	r2, [r1, #4]
 8000196:	f002 0201 	and.w	r2, r2, #1
 800019a:	4282      	cmp	r2, r0
 800019c:	d00e      	beq.n	80001bc <waitMSRINAKBitStateChange.constprop.29+0x34>
 800019e:	9401      	str	r4, [sp, #4]
 80001a0:	9a01      	ldr	r2, [sp, #4]
 80001a2:	42aa      	cmp	r2, r5
 80001a4:	d906      	bls.n	80001b4 <waitMSRINAKBitStateChange.constprop.29+0x2c>
 80001a6:	3b01      	subs	r3, #1
 80001a8:	b29b      	uxth	r3, r3
 80001aa:	2b00      	cmp	r3, #0
 80001ac:	d1f2      	bne.n	8000194 <waitMSRINAKBitStateChange.constprop.29+0xc>
 80001ae:	4618      	mov	r0, r3
 80001b0:	b003      	add	sp, #12
 80001b2:	bd30      	pop	{r4, r5, pc}
 80001b4:	9a01      	ldr	r2, [sp, #4]
 80001b6:	3201      	adds	r2, #1
 80001b8:	9201      	str	r2, [sp, #4]
 80001ba:	e7f1      	b.n	80001a0 <waitMSRINAKBitStateChange.constprop.29+0x18>
 80001bc:	2001      	movs	r0, #1
 80001be:	e7f7      	b.n	80001b0 <waitMSRINAKBitStateChange.constprop.29+0x28>
 80001c0:	40006400 	andmi	r6, r0, r0, lsl #8
 80001c4:	0001869f 	muleq	r1, pc, r6	; <UNPREDICTABLE>

080001c8 <allocateBlock.constprop.25>:
 80001c8:	4a06      	ldr	r2, [pc, #24]	; (80001e4 <allocateBlock.constprop.25+0x1c>)
 80001ca:	68d0      	ldr	r0, [r2, #12]
 80001cc:	b148      	cbz	r0, 80001e2 <allocateBlock.constprop.25+0x1a>
 80001ce:	6803      	ldr	r3, [r0, #0]
 80001d0:	60d3      	str	r3, [r2, #12]
 80001d2:	8a53      	ldrh	r3, [r2, #18]
 80001d4:	8a91      	ldrh	r1, [r2, #20]
 80001d6:	3301      	adds	r3, #1
 80001d8:	b29b      	uxth	r3, r3
 80001da:	4299      	cmp	r1, r3
 80001dc:	8253      	strh	r3, [r2, #18]
 80001de:	bf38      	it	cc
 80001e0:	8293      	strhcc	r3, [r2, #20]
 80001e2:	4770      	bx	lr
 80001e4:	20000068 	andcs	r0, r0, r8, rrx

080001e8 <releaseStatePayload.constprop.15>:
 80001e8:	4b0c      	ldr	r3, [pc, #48]	; (800021c <releaseStatePayload.constprop.15+0x34>)
 80001ea:	b570      	push	{r4, r5, r6, lr}
 80001ec:	8a59      	ldrh	r1, [r3, #18]
 80001ee:	68dc      	ldr	r4, [r3, #12]
 80001f0:	2600      	movs	r6, #0
 80001f2:	6842      	ldr	r2, [r0, #4]
 80001f4:	1e4d      	subs	r5, r1, #1
 80001f6:	b2ad      	uxth	r5, r5
 80001f8:	b94a      	cbnz	r2, 800020e <releaseStatePayload.constprop.15+0x26>
 80001fa:	b10e      	cbz	r6, 8000200 <releaseStatePayload.constprop.15+0x18>
 80001fc:	60dc      	str	r4, [r3, #12]
 80001fe:	8259      	strh	r1, [r3, #18]
 8000200:	8ac3      	ldrh	r3, [r0, #22]
 8000202:	f36f 0309 	bfc	r3, #0, #10
 8000206:	82c3      	strh	r3, [r0, #22]
 8000208:	2100      	movs	r1, #0
 800020a:	2000      	movs	r0, #0
 800020c:	bd70      	pop	{r4, r5, r6, pc}
 800020e:	6811      	ldr	r1, [r2, #0]
 8000210:	6014      	str	r4, [r2, #0]
 8000212:	2601      	movs	r6, #1
 8000214:	6041      	str	r1, [r0, #4]
 8000216:	4614      	mov	r4, r2
 8000218:	4629      	mov	r1, r5
 800021a:	e7ea      	b.n	80001f2 <releaseStatePayload.constprop.15+0xa>
 800021c:	20000068 	andcs	r0, r0, r8, rrx

08000220 <bufferBlockPushBytes.constprop.10>:
 8000220:	e92d 43f8 	stmdb	sp!, {r3, r4, r5, r6, r7, r8, r9, lr}
 8000224:	8ac3      	ldrh	r3, [r0, #22]
 8000226:	4606      	mov	r6, r0
 8000228:	f3c3 0009 	ubfx	r0, r3, #0, #10
 800022c:	2806      	cmp	r0, #6
 800022e:	4688      	mov	r8, r1
 8000230:	4615      	mov	r5, r2
 8000232:	4603      	mov	r3, r0
 8000234:	d01d      	beq.n	8000272 <bufferBlockPushBytes.constprop.10+0x52>
 8000236:	2100      	movs	r1, #0
 8000238:	b292      	uxth	r2, r2
 800023a:	f106 0c19 	add.w	ip, r6, #25
 800023e:	fa1f fe83 	uxth.w	lr, r3
 8000242:	b28c      	uxth	r4, r1
 8000244:	f1be 0f05 	cmp.w	lr, #5
 8000248:	4627      	mov	r7, r4
 800024a:	d803      	bhi.n	8000254 <bufferBlockPushBytes.constprop.10+0x34>
 800024c:	4294      	cmp	r4, r2
 800024e:	f103 0301 	add.w	r3, r3, #1
 8000252:	d308      	bcc.n	8000266 <bufferBlockPushBytes.constprop.10+0x46>
 8000254:	4294      	cmp	r4, r2
 8000256:	d30d      	bcc.n	8000274 <bufferBlockPushBytes.constprop.10+0x54>
 8000258:	8af3      	ldrh	r3, [r6, #22]
 800025a:	4402      	add	r2, r0
 800025c:	f362 0309 	bfi	r3, r2, #0, #10
 8000260:	82f3      	strh	r3, [r6, #22]
 8000262:	2001      	movs	r0, #1
 8000264:	e017      	b.n	8000296 <bufferBlockPushBytes.constprop.10+0x76>
 8000266:	f818 4001 	ldrb.w	r4, [r8, r1]
 800026a:	f80c 4003 	strb.w	r4, [ip, r3]
 800026e:	3101      	adds	r1, #1
 8000270:	e7e5      	b.n	800023e <bufferBlockPushBytes.constprop.10+0x1e>
 8000272:	2700      	movs	r7, #0
 8000274:	1f82      	subs	r2, r0, #6
 8000276:	231c      	movs	r3, #28
 8000278:	6874      	ldr	r4, [r6, #4]
 800027a:	fbb2 f9f3 	udiv	r9, r2, r3
 800027e:	fb03 2919 	mls	r9, r3, r9, r2
 8000282:	fa1f f189 	uxth.w	r1, r9
 8000286:	bb7c      	cbnz	r4, 80002e8 <bufferBlockPushBytes.constprop.10+0xc8>
 8000288:	f7ff ff9e 	bl	80001c8 <allocateBlock.constprop.25>
 800028c:	4604      	mov	r4, r0
 800028e:	b920      	cbnz	r0, 800029a <bufferBlockPushBytes.constprop.10+0x7a>
 8000290:	6070      	str	r0, [r6, #4]
 8000292:	f06f 0002 	mvn.w	r0, #2
 8000296:	e8bd 83f8 	ldmia.w	sp!, {r3, r4, r5, r6, r7, r8, r9, pc}
 800029a:	2100      	movs	r1, #0
 800029c:	6001      	str	r1, [r0, #0]
 800029e:	6070      	str	r0, [r6, #4]
 80002a0:	b2ad      	uxth	r5, r5
 80002a2:	f04f 0900 	mov.w	r9, #0
 80002a6:	42bd      	cmp	r5, r7
 80002a8:	d826      	bhi.n	80002f8 <bufferBlockPushBytes.constprop.10+0xd8>
 80002aa:	8af3      	ldrh	r3, [r6, #22]
 80002ac:	f3c3 0209 	ubfx	r2, r3, #0, #10
 80002b0:	4415      	add	r5, r2
 80002b2:	f365 0309 	bfi	r3, r5, #0, #10
 80002b6:	e7d3      	b.n	8000260 <bufferBlockPushBytes.constprop.10+0x40>
 80002b8:	3201      	adds	r2, #1
 80002ba:	b292      	uxth	r2, r2
 80002bc:	461c      	mov	r4, r3
 80002be:	6823      	ldr	r3, [r4, #0]
 80002c0:	2b00      	cmp	r3, #0
 80002c2:	d1f9      	bne.n	80002b8 <bufferBlockPushBytes.constprop.10+0x98>
 80002c4:	1fab      	subs	r3, r5, #6
 80002c6:	4403      	add	r3, r0
 80002c8:	201c      	movs	r0, #28
 80002ca:	fbb3 f3f0 	udiv	r3, r3, r0
 80002ce:	3301      	adds	r3, #1
 80002d0:	b29b      	uxth	r3, r3
 80002d2:	429a      	cmp	r2, r3
 80002d4:	d2e4      	bcs.n	80002a0 <bufferBlockPushBytes.constprop.10+0x80>
 80002d6:	f1b9 0f00 	cmp.w	r9, #0
 80002da:	d1e1      	bne.n	80002a0 <bufferBlockPushBytes.constprop.10+0x80>
 80002dc:	f7ff ff74 	bl	80001c8 <allocateBlock.constprop.25>
 80002e0:	b920      	cbnz	r0, 80002ec <bufferBlockPushBytes.constprop.10+0xcc>
 80002e2:	f8c4 9000 	str.w	r9, [r4]
 80002e6:	e7d4      	b.n	8000292 <bufferBlockPushBytes.constprop.10+0x72>
 80002e8:	2201      	movs	r2, #1
 80002ea:	e7e8      	b.n	80002be <bufferBlockPushBytes.constprop.10+0x9e>
 80002ec:	f8c0 9000 	str.w	r9, [r0]
 80002f0:	4649      	mov	r1, r9
 80002f2:	6020      	str	r0, [r4, #0]
 80002f4:	4604      	mov	r4, r0
 80002f6:	e7d3      	b.n	80002a0 <bufferBlockPushBytes.constprop.10+0x80>
 80002f8:	460b      	mov	r3, r1
 80002fa:	eb08 0207 	add.w	r2, r8, r7
 80002fe:	1d20      	adds	r0, r4, #4
 8000300:	f812 cb01 	ldrb.w	ip, [r2], #1
 8000304:	f800 c003 	strb.w	ip, [r0, r3]
 8000308:	fa1f fc83 	uxth.w	ip, r3
 800030c:	3701      	adds	r7, #1
 800030e:	f1bc 0f1b 	cmp.w	ip, #27
 8000312:	b2bf      	uxth	r7, r7
 8000314:	d004      	beq.n	8000320 <bufferBlockPushBytes.constprop.10+0x100>
 8000316:	42af      	cmp	r7, r5
 8000318:	f103 0301 	add.w	r3, r3, #1
 800031c:	d3f0      	bcc.n	8000300 <bufferBlockPushBytes.constprop.10+0xe0>
 800031e:	e7c2      	b.n	80002a6 <bufferBlockPushBytes.constprop.10+0x86>
 8000320:	42af      	cmp	r7, r5
 8000322:	d2c0      	bcs.n	80002a6 <bufferBlockPushBytes.constprop.10+0x86>
 8000324:	f7ff ff50 	bl	80001c8 <allocateBlock.constprop.25>
 8000328:	b908      	cbnz	r0, 800032e <bufferBlockPushBytes.constprop.10+0x10e>
 800032a:	6020      	str	r0, [r4, #0]
 800032c:	e7b1      	b.n	8000292 <bufferBlockPushBytes.constprop.10+0x72>
 800032e:	f8c0 9000 	str.w	r9, [r0]
 8000332:	2100      	movs	r1, #0
 8000334:	6020      	str	r0, [r4, #0]
 8000336:	4604      	mov	r4, r0
 8000338:	e7b5      	b.n	80002a6 <bufferBlockPushBytes.constprop.10+0x86>

0800033a <pushTxQueue.isra.0>:
 800033a:	e92d 43f0 	stmdb	sp!, {r4, r5, r6, r7, r8, r9, lr}
 800033e:	6807      	ldr	r7, [r0, #0]
 8000340:	b917      	cbnz	r7, 8000348 <pushTxQueue.isra.0+0xe>
 8000342:	6001      	str	r1, [r0, #0]
 8000344:	e8bd 83f0 	ldmia.w	sp!, {r4, r5, r6, r7, r8, r9, pc}
 8000348:	684e      	ldr	r6, [r1, #4]
 800034a:	f026 4c60 	bic.w	ip, r6, #3758096384	; 0xe0000000
 800034e:	f3c6 7880 	ubfx	r8, r6, #30, #1
 8000352:	0ff6      	lsrs	r6, r6, #31
 8000354:	ea4f 459c 	mov.w	r5, ip, lsr #18
 8000358:	46be      	mov	lr, r7
 800035a:	bf08      	it	eq
 800035c:	4665      	moveq	r5, ip
 800035e:	463a      	mov	r2, r7
 8000360:	6853      	ldr	r3, [r2, #4]
 8000362:	ea4f 79d3 	mov.w	r9, r3, lsr #31
 8000366:	454e      	cmp	r6, r9
 8000368:	f023 4460 	bic.w	r4, r3, #3758096384	; 0xe0000000
 800036c:	d00b      	beq.n	8000386 <pushTxQueue.isra.0+0x4c>
 800036e:	f1b9 0f00 	cmp.w	r9, #0
 8000372:	d017      	beq.n	80003a4 <pushTxQueue.isra.0+0x6a>
 8000374:	0ca4      	lsrs	r4, r4, #18
 8000376:	42ac      	cmp	r4, r5
 8000378:	d116      	bne.n	80003a8 <pushTxQueue.isra.0+0x6e>
 800037a:	4297      	cmp	r7, r2
 800037c:	d10e      	bne.n	800039c <pushTxQueue.isra.0+0x62>
 800037e:	600f      	str	r7, [r1, #0]
 8000380:	e7df      	b.n	8000342 <pushTxQueue.isra.0+0x8>
 8000382:	461a      	mov	r2, r3
 8000384:	e7ec      	b.n	8000360 <pushTxQueue.isra.0+0x26>
 8000386:	45a4      	cmp	ip, r4
 8000388:	d103      	bne.n	8000392 <pushTxQueue.isra.0+0x58>
 800038a:	f3c3 7380 	ubfx	r3, r3, #30, #1
 800038e:	4598      	cmp	r8, r3
 8000390:	d10e      	bne.n	80003b0 <pushTxQueue.isra.0+0x76>
 8000392:	45a4      	cmp	ip, r4
 8000394:	bf2c      	ite	cs
 8000396:	2300      	movcs	r3, #0
 8000398:	2301      	movcc	r3, #1
 800039a:	e009      	b.n	80003b0 <pushTxQueue.isra.0+0x76>
 800039c:	f8ce 1000 	str.w	r1, [lr]
 80003a0:	600a      	str	r2, [r1, #0]
 80003a2:	e7cf      	b.n	8000344 <pushTxQueue.isra.0+0xa>
 80003a4:	42ac      	cmp	r4, r5
 80003a6:	d005      	beq.n	80003b4 <pushTxQueue.isra.0+0x7a>
 80003a8:	42ac      	cmp	r4, r5
 80003aa:	bf94      	ite	ls
 80003ac:	2300      	movls	r3, #0
 80003ae:	2301      	movhi	r3, #1
 80003b0:	2b00      	cmp	r3, #0
 80003b2:	d1e2      	bne.n	800037a <pushTxQueue.isra.0+0x40>
 80003b4:	6813      	ldr	r3, [r2, #0]
 80003b6:	4696      	mov	lr, r2
 80003b8:	2b00      	cmp	r3, #0
 80003ba:	d1e2      	bne.n	8000382 <pushTxQueue.isra.0+0x48>
 80003bc:	6011      	str	r1, [r2, #0]
 80003be:	e7c1      	b.n	8000344 <pushTxQueue.isra.0+0xa>

080003c0 <crcAddByte>:
 80003c0:	ea80 2001 	eor.w	r0, r0, r1, lsl #8
 80003c4:	2308      	movs	r3, #8
 80003c6:	f241 0221 	movw	r2, #4129	; 0x1021
 80003ca:	b201      	sxth	r1, r0
 80003cc:	0040      	lsls	r0, r0, #1
 80003ce:	2900      	cmp	r1, #0
 80003d0:	b280      	uxth	r0, r0
 80003d2:	f103 33ff 	add.w	r3, r3, #4294967295	; 0xffffffff
 80003d6:	bfb8      	it	lt
 80003d8:	4050      	eorlt	r0, r2
 80003da:	f013 03ff 	ands.w	r3, r3, #255	; 0xff
 80003de:	d1f4      	bne.n	80003ca <crcAddByte+0xa>
 80003e0:	4770      	bx	lr

080003e2 <crcAdd>:
 80003e2:	b538      	push	{r3, r4, r5, lr}
 80003e4:	460c      	mov	r4, r1
 80003e6:	188d      	adds	r5, r1, r2
 80003e8:	42ac      	cmp	r4, r5
 80003ea:	d100      	bne.n	80003ee <crcAdd+0xc>
 80003ec:	bd38      	pop	{r3, r4, r5, pc}
 80003ee:	f814 1b01 	ldrb.w	r1, [r4], #1
 80003f2:	f7ff ffe5 	bl	80003c0 <crcAddByte>
 80003f6:	e7f7      	b.n	80003e8 <crcAdd+0x6>

080003f8 <copyBitArray>:
 80003f8:	e92d 47f0 	stmdb	sp!, {r4, r5, r6, r7, r8, r9, sl, lr}
 80003fc:	9e08      	ldr	r6, [sp, #32]
 80003fe:	f001 0507 	and.w	r5, r1, #7
 8000402:	ea4f 0ed6 	mov.w	lr, r6, lsr #3
 8000406:	442a      	add	r2, r5
 8000408:	f006 0607 	and.w	r6, r6, #7
 800040c:	eb00 00d1 	add.w	r0, r0, r1, lsr #3
 8000410:	f44f 497f 	mov.w	r9, #65280	; 0xff00
 8000414:	4295      	cmp	r5, r2
 8000416:	d101      	bne.n	800041c <copyBitArray+0x24>
 8000418:	e8bd 87f0 	ldmia.w	sp!, {r4, r5, r6, r7, r8, r9, sl, pc}
 800041c:	f005 0c07 	and.w	ip, r5, #7
 8000420:	f006 0a07 	and.w	sl, r6, #7
 8000424:	45d4      	cmp	ip, sl
 8000426:	4667      	mov	r7, ip
 8000428:	ea4f 04d5 	mov.w	r4, r5, lsr #3
 800042c:	bf38      	it	cc
 800042e:	4657      	movcc	r7, sl
 8000430:	f1c7 0708 	rsb	r7, r7, #8
 8000434:	1b51      	subs	r1, r2, r5
 8000436:	eb0e 08d6 	add.w	r8, lr, r6, lsr #3
 800043a:	428f      	cmp	r7, r1
 800043c:	5d04      	ldrb	r4, [r0, r4]
 800043e:	bf28      	it	cs
 8000440:	460f      	movcs	r7, r1
 8000442:	fa04 f40c 	lsl.w	r4, r4, ip
 8000446:	f813 1008 	ldrb.w	r1, [r3, r8]
 800044a:	fa29 fc07 	lsr.w	ip, r9, r7
 800044e:	fa24 f40a 	lsr.w	r4, r4, sl
 8000452:	fa5f fc8c 	uxtb.w	ip, ip
 8000456:	404c      	eors	r4, r1
 8000458:	fa4c fc0a 	asr.w	ip, ip, sl
 800045c:	ea04 040c 	and.w	r4, r4, ip
 8000460:	4061      	eors	r1, r4
 8000462:	f803 1008 	strb.w	r1, [r3, r8]
 8000466:	443d      	add	r5, r7
 8000468:	443e      	add	r6, r7
 800046a:	e7d3      	b.n	8000414 <copyBitArray+0x1c>

0800046c <canardReleaseRxTransferPayload>:
 800046c:	b510      	push	{r4, lr}
 800046e:	68cb      	ldr	r3, [r1, #12]
 8000470:	b91b      	cbnz	r3, 800047a <canardReleaseRxTransferPayload+0xe>
 8000472:	608b      	str	r3, [r1, #8]
 8000474:	610b      	str	r3, [r1, #16]
 8000476:	828b      	strh	r3, [r1, #20]
 8000478:	bd10      	pop	{r4, pc}
 800047a:	68c4      	ldr	r4, [r0, #12]
 800047c:	681a      	ldr	r2, [r3, #0]
 800047e:	601c      	str	r4, [r3, #0]
 8000480:	60c3      	str	r3, [r0, #12]
 8000482:	8a43      	ldrh	r3, [r0, #18]
 8000484:	3b01      	subs	r3, #1
 8000486:	8243      	strh	r3, [r0, #18]
 8000488:	60ca      	str	r2, [r1, #12]
 800048a:	e7f0      	b.n	800046e <canardReleaseRxTransferPayload+0x2>

0800048c <NVIC_SystemReset>:
 800048c:	f3bf 8f4f 	dsb	sy
 8000490:	4905      	ldr	r1, [pc, #20]	; (80004a8 <NVIC_SystemReset+0x1c>)
 8000492:	4b06      	ldr	r3, [pc, #24]	; (80004ac <NVIC_SystemReset+0x20>)
 8000494:	68ca      	ldr	r2, [r1, #12]
 8000496:	f402 62e0 	and.w	r2, r2, #1792	; 0x700
 800049a:	4313      	orrs	r3, r2
 800049c:	60cb      	str	r3, [r1, #12]
 800049e:	f3bf 8f4f 	dsb	sy
 80004a2:	bf00      	nop
 80004a4:	e7fd      	b.n	80004a2 <NVIC_SystemReset+0x16>
 80004a6:	bf00      	nop
 80004a8:	e000ed00 	and	lr, r0, r0, lsl #26
 80004ac:	05fa0004 	ldrbeq	r0, [sl, #4]!

080004b0 <mcual_loader_boot.part.0>:
 80004b0:	4b09      	ldr	r3, [pc, #36]	; (80004d8 <mcual_loader_boot.part.0+0x28>)
 80004b2:	f04f 4200 	mov.w	r2, #2147483648	; 0x80000000
 80004b6:	b580      	push	{r7, lr}
 80004b8:	611a      	str	r2, [r3, #16]
 80004ba:	f5a3 3396 	sub.w	r3, r3, #76800	; 0x12c00
 80004be:	2200      	movs	r2, #0
 80004c0:	819a      	strh	r2, [r3, #12]
 80004c2:	4b06      	ldr	r3, [pc, #24]	; (80004dc <mcual_loader_boot.part.0+0x2c>)
 80004c4:	4a06      	ldr	r2, [pc, #24]	; (80004e0 <mcual_loader_boot.part.0+0x30>)
 80004c6:	609a      	str	r2, [r3, #8]
 80004c8:	2301      	movs	r3, #1
 80004ca:	af00      	add	r7, sp, #0
 80004cc:	681b      	ldr	r3, [r3, #0]
 80004ce:	f383 8808 	msr	MSP, r3
 80004d2:	2305      	movs	r3, #5
 80004d4:	681b      	ldr	r3, [r3, #0]
 80004d6:	4798      	blx	r3
 80004d8:	40023c00 	andmi	r3, r2, r0, lsl #24
 80004dc:	e000ed00 	and	lr, r0, r0, lsl #26
 80004e0:	08004000 	stmdaeq	r0, {lr}

080004e4 <mcual_can_add_in_mailbox>:
 80004e4:	0100      	lsls	r0, r0, #4
 80004e6:	7b0b      	ldrb	r3, [r1, #12]
 80004e8:	f100 4080 	add.w	r0, r0, #1073741824	; 0x40000000
 80004ec:	f500 40cb 	add.w	r0, r0, #25984	; 0x6580
 80004f0:	b2db      	uxtb	r3, r3
 80004f2:	b530      	push	{r4, r5, lr}
 80004f4:	6043      	str	r3, [r0, #4]
 80004f6:	7acd      	ldrb	r5, [r1, #11]
 80004f8:	7a8b      	ldrb	r3, [r1, #10]
 80004fa:	7a4a      	ldrb	r2, [r1, #9]
 80004fc:	7a0c      	ldrb	r4, [r1, #8]
 80004fe:	041b      	lsls	r3, r3, #16
 8000500:	ea43 6305 	orr.w	r3, r3, r5, lsl #24
 8000504:	4323      	orrs	r3, r4
 8000506:	ea43 2302 	orr.w	r3, r3, r2, lsl #8
 800050a:	60c3      	str	r3, [r0, #12]
 800050c:	79cd      	ldrb	r5, [r1, #7]
 800050e:	798b      	ldrb	r3, [r1, #6]
 8000510:	794a      	ldrb	r2, [r1, #5]
 8000512:	790c      	ldrb	r4, [r1, #4]
 8000514:	041b      	lsls	r3, r3, #16
 8000516:	ea43 6305 	orr.w	r3, r3, r5, lsl #24
 800051a:	4323      	orrs	r3, r4
 800051c:	ea43 2302 	orr.w	r3, r3, r2, lsl #8
 8000520:	6083      	str	r3, [r0, #8]
 8000522:	680a      	ldr	r2, [r1, #0]
 8000524:	2a00      	cmp	r2, #0
 8000526:	bfb6      	itet	lt
 8000528:	00d3      	lsllt	r3, r2, #3
 800052a:	0553      	lslge	r3, r2, #21
 800052c:	f043 0304 	orrlt.w	r3, r3, #4
 8000530:	0052      	lsls	r2, r2, #1
 8000532:	bf48      	it	mi
 8000534:	f043 0302 	orrmi.w	r3, r3, #2
 8000538:	f043 0301 	orr.w	r3, r3, #1
 800053c:	6003      	str	r3, [r0, #0]
 800053e:	4b0a      	ldr	r3, [pc, #40]	; (8000568 <mcual_can_add_in_mailbox+0x84>)
 8000540:	681a      	ldr	r2, [r3, #0]
 8000542:	3201      	adds	r2, #1
 8000544:	601a      	str	r2, [r3, #0]
 8000546:	681a      	ldr	r2, [r3, #0]
 8000548:	2a3f      	cmp	r2, #63	; 0x3f
 800054a:	bfc4      	itt	gt
 800054c:	2200      	movgt	r2, #0
 800054e:	601a      	strgt	r2, [r3, #0]
 8000550:	681a      	ldr	r2, [r3, #0]
 8000552:	4b06      	ldr	r3, [pc, #24]	; (800056c <mcual_can_add_in_mailbox+0x88>)
 8000554:	681b      	ldr	r3, [r3, #0]
 8000556:	429a      	cmp	r2, r3
 8000558:	bf01      	itttt	eq
 800055a:	4a05      	ldreq	r2, [pc, #20]	; (8000570 <mcual_can_add_in_mailbox+0x8c>)
 800055c:	6953      	ldreq	r3, [r2, #20]
 800055e:	f023 0301 	biceq.w	r3, r3, #1
 8000562:	6153      	streq	r3, [r2, #20]
 8000564:	bd30      	pop	{r4, r5, pc}
 8000566:	bf00      	nop
 8000568:	200022e4 	andcs	r2, r0, r4, ror #5
 800056c:	200022e8 	andcs	r2, r0, r8, ror #5
 8000570:	40006400 	andmi	r6, r0, r0, lsl #8

08000574 <convertFrameIDRegisterToCanard>:
 8000574:	0741      	lsls	r1, r0, #29
 8000576:	bf46      	itte	mi
 8000578:	08c3      	lsrmi	r3, r0, #3
 800057a:	f043 4300 	orrmi.w	r3, r3, #2147483648	; 0x80000000
 800057e:	0d43      	lsrpl	r3, r0, #21
 8000580:	0782      	lsls	r2, r0, #30
 8000582:	bf48      	it	mi
 8000584:	f043 4380 	orrmi.w	r3, r3, #1073741824	; 0x40000000
 8000588:	4618      	mov	r0, r3
 800058a:	4770      	bx	lr

0800058c <mcual_can_rcev_frame>:
 800058c:	b57f      	push	{r0, r1, r2, r3, r4, r5, r6, lr}
 800058e:	4604      	mov	r4, r0
 8000590:	6800      	ldr	r0, [r0, #0]
 8000592:	4d10      	ldr	r5, [pc, #64]	; (80005d4 <mcual_can_rcev_frame+0x48>)
 8000594:	f7ff ffee 	bl	8000574 <convertFrameIDRegisterToCanard>
 8000598:	6863      	ldr	r3, [r4, #4]
 800059a:	68a6      	ldr	r6, [r4, #8]
 800059c:	68e1      	ldr	r1, [r4, #12]
 800059e:	682a      	ldr	r2, [r5, #0]
 80005a0:	4c0d      	ldr	r4, [pc, #52]	; (80005d8 <mcual_can_rcev_frame+0x4c>)
 80005a2:	9102      	str	r1, [sp, #8]
 80005a4:	e9cd 0600 	strd	r0, r6, [sp]
 80005a8:	f003 030f 	and.w	r3, r3, #15
 80005ac:	f88d 300c 	strb.w	r3, [sp, #12]
 80005b0:	ab04      	add	r3, sp, #16
 80005b2:	eb04 1402 	add.w	r4, r4, r2, lsl #4
 80005b6:	e913 000f 	ldmdb	r3, {r0, r1, r2, r3}
 80005ba:	e884 000f 	stmia.w	r4, {r0, r1, r2, r3}
 80005be:	682b      	ldr	r3, [r5, #0]
 80005c0:	3301      	adds	r3, #1
 80005c2:	602b      	str	r3, [r5, #0]
 80005c4:	682b      	ldr	r3, [r5, #0]
 80005c6:	2b3f      	cmp	r3, #63	; 0x3f
 80005c8:	bfc4      	itt	gt
 80005ca:	2300      	movgt	r3, #0
 80005cc:	602b      	strgt	r3, [r5, #0]
 80005ce:	b004      	add	sp, #16
 80005d0:	bd70      	pop	{r4, r5, r6, pc}
 80005d2:	bf00      	nop
 80005d4:	20001294 	mulcs	r0, r4, r2
 80005d8:	20000640 	andcs	r0, r0, r0, asr #12

080005dc <isFramePriorityHigher>:
 80005dc:	b530      	push	{r4, r5, lr}
 80005de:	0fcb      	lsrs	r3, r1, #31
 80005e0:	0fc5      	lsrs	r5, r0, #31
 80005e2:	429d      	cmp	r5, r3
 80005e4:	f020 4460 	bic.w	r4, r0, #3758096384	; 0xe0000000
 80005e8:	f021 4260 	bic.w	r2, r1, #3758096384	; 0xe0000000
 80005ec:	d00a      	beq.n	8000604 <isFramePriorityHigher+0x28>
 80005ee:	b105      	cbz	r5, 80005f2 <isFramePriorityHigher+0x16>
 80005f0:	0ca4      	lsrs	r4, r4, #18
 80005f2:	b103      	cbz	r3, 80005f6 <isFramePriorityHigher+0x1a>
 80005f4:	0c92      	lsrs	r2, r2, #18
 80005f6:	4294      	cmp	r4, r2
 80005f8:	d002      	beq.n	8000600 <isFramePriorityHigher+0x24>
 80005fa:	bf34      	ite	cc
 80005fc:	2301      	movcc	r3, #1
 80005fe:	2300      	movcs	r3, #0
 8000600:	4618      	mov	r0, r3
 8000602:	bd30      	pop	{r4, r5, pc}
 8000604:	4294      	cmp	r4, r2
 8000606:	d105      	bne.n	8000614 <isFramePriorityHigher+0x38>
 8000608:	f3c1 7380 	ubfx	r3, r1, #30, #1
 800060c:	f3c0 7080 	ubfx	r0, r0, #30, #1
 8000610:	4298      	cmp	r0, r3
 8000612:	d1f5      	bne.n	8000600 <isFramePriorityHigher+0x24>
 8000614:	4294      	cmp	r4, r2
 8000616:	bf2c      	ite	cs
 8000618:	2300      	movcs	r3, #0
 800061a:	2301      	movcc	r3, #1
 800061c:	e7f0      	b.n	8000600 <isFramePriorityHigher+0x24>
	...

08000620 <mcual_gpio_set_function>:
 8000620:	4b1d      	ldr	r3, [pc, #116]	; (8000698 <mcual_gpio_set_function+0x78>)
 8000622:	e92d 47f0 	stmdb	sp!, {r4, r5, r6, r7, r8, r9, sl, lr}
 8000626:	f853 4020 	ldr.w	r4, [r3, r0, lsl #2]
 800062a:	f8d4 9020 	ldr.w	r9, [r4, #32]
 800062e:	6a65      	ldr	r5, [r4, #36]	; 0x24
 8000630:	6826      	ldr	r6, [r4, #0]
 8000632:	2000      	movs	r0, #0
 8000634:	f04f 0c01 	mov.w	ip, #1
 8000638:	f04f 0e03 	mov.w	lr, #3
 800063c:	f04f 0802 	mov.w	r8, #2
 8000640:	270f      	movs	r7, #15
 8000642:	fa0c f300 	lsl.w	r3, ip, r0
 8000646:	420b      	tst	r3, r1
 8000648:	d014      	beq.n	8000674 <mcual_gpio_set_function+0x54>
 800064a:	0043      	lsls	r3, r0, #1
 800064c:	fa0e fa03 	lsl.w	sl, lr, r3
 8000650:	ea26 060a 	bic.w	r6, r6, sl
 8000654:	fa08 f303 	lsl.w	r3, r8, r3
 8000658:	2807      	cmp	r0, #7
 800065a:	ea46 0603 	orr.w	r6, r6, r3
 800065e:	ea4f 0380 	mov.w	r3, r0, lsl #2
 8000662:	dc10      	bgt.n	8000686 <mcual_gpio_set_function+0x66>
 8000664:	fa07 fa03 	lsl.w	sl, r7, r3
 8000668:	ea29 090a 	bic.w	r9, r9, sl
 800066c:	fa02 f303 	lsl.w	r3, r2, r3
 8000670:	ea43 0909 	orr.w	r9, r3, r9
 8000674:	3001      	adds	r0, #1
 8000676:	2810      	cmp	r0, #16
 8000678:	d1e3      	bne.n	8000642 <mcual_gpio_set_function+0x22>
 800067a:	6026      	str	r6, [r4, #0]
 800067c:	f8c4 9020 	str.w	r9, [r4, #32]
 8000680:	6265      	str	r5, [r4, #36]	; 0x24
 8000682:	e8bd 87f0 	ldmia.w	sp!, {r4, r5, r6, r7, r8, r9, sl, pc}
 8000686:	3b20      	subs	r3, #32
 8000688:	fa07 fa03 	lsl.w	sl, r7, r3
 800068c:	ea25 050a 	bic.w	r5, r5, sl
 8000690:	fa02 f303 	lsl.w	r3, r2, r3
 8000694:	431d      	orrs	r5, r3
 8000696:	e7ed      	b.n	8000674 <mcual_gpio_set_function+0x54>
 8000698:	08002b9c 	stmdaeq	r0, {r2, r3, r4, r7, r8, r9, fp, sp}

0800069c <mcual_gpio_init>:
 800069c:	e92d 47f0 	stmdb	sp!, {r4, r5, r6, r7, r8, r9, sl, lr}
 80006a0:	4690      	mov	r8, r2
 80006a2:	4a1d      	ldr	r2, [pc, #116]	; (8000718 <mcual_gpio_init+0x7c>)
 80006a4:	468e      	mov	lr, r1
 80006a6:	2601      	movs	r6, #1
 80006a8:	6b11      	ldr	r1, [r2, #48]	; 0x30
 80006aa:	fa06 f300 	lsl.w	r3, r6, r0
 80006ae:	430b      	orrs	r3, r1
 80006b0:	6313      	str	r3, [r2, #48]	; 0x30
 80006b2:	4b1a      	ldr	r3, [pc, #104]	; (800071c <mcual_gpio_init+0x80>)
 80006b4:	f853 3020 	ldr.w	r3, [r3, r0, lsl #2]
 80006b8:	681d      	ldr	r5, [r3, #0]
 80006ba:	6899      	ldr	r1, [r3, #8]
 80006bc:	6a1a      	ldr	r2, [r3, #32]
 80006be:	6a5f      	ldr	r7, [r3, #36]	; 0x24
 80006c0:	2400      	movs	r4, #0
 80006c2:	f04f 0903 	mov.w	r9, #3
 80006c6:	f04f 0c0f 	mov.w	ip, #15
 80006ca:	fa06 f004 	lsl.w	r0, r6, r4
 80006ce:	ea10 0f0e 	tst.w	r0, lr
 80006d2:	d018      	beq.n	8000706 <mcual_gpio_init+0x6a>
 80006d4:	0060      	lsls	r0, r4, #1
 80006d6:	fa09 fa00 	lsl.w	sl, r9, r0
 80006da:	ea25 050a 	bic.w	r5, r5, sl
 80006de:	f1b8 0f00 	cmp.w	r8, #0
 80006e2:	d002      	beq.n	80006ea <mcual_gpio_init+0x4e>
 80006e4:	fa06 f000 	lsl.w	r0, r6, r0
 80006e8:	4305      	orrs	r5, r0
 80006ea:	2c07      	cmp	r4, #7
 80006ec:	ea4f 0084 	mov.w	r0, r4, lsl #2
 80006f0:	bfca      	itet	gt
 80006f2:	3820      	subgt	r0, #32
 80006f4:	fa0c f000 	lslle.w	r0, ip, r0
 80006f8:	fa0c f000 	lslgt.w	r0, ip, r0
 80006fc:	ea41 010a 	orr.w	r1, r1, sl
 8000700:	bfd4      	ite	le
 8000702:	4382      	bicle	r2, r0
 8000704:	4387      	bicgt	r7, r0
 8000706:	3401      	adds	r4, #1
 8000708:	2c10      	cmp	r4, #16
 800070a:	d1de      	bne.n	80006ca <mcual_gpio_init+0x2e>
 800070c:	601d      	str	r5, [r3, #0]
 800070e:	6099      	str	r1, [r3, #8]
 8000710:	621a      	str	r2, [r3, #32]
 8000712:	625f      	str	r7, [r3, #36]	; 0x24
 8000714:	e8bd 87f0 	ldmia.w	sp!, {r4, r5, r6, r7, r8, r9, sl, pc}
 8000718:	40023800 	andmi	r3, r2, r0, lsl #16
 800071c:	08002b9c 	stmdaeq	r0, {r2, r3, r4, r7, r8, r9, fp, sp}

08000720 <mcual_clock_get_frequency_Hz>:
 8000720:	4a3f      	ldr	r2, [pc, #252]	; (8000820 <mcual_clock_get_frequency_Hz+0x100>)
 8000722:	6893      	ldr	r3, [r2, #8]
 8000724:	f003 030c 	and.w	r3, r3, #12
 8000728:	2b04      	cmp	r3, #4
 800072a:	b510      	push	{r4, lr}
 800072c:	d02c      	beq.n	8000788 <mcual_clock_get_frequency_Hz+0x68>
 800072e:	2b08      	cmp	r3, #8
 8000730:	d012      	beq.n	8000758 <mcual_clock_get_frequency_Hz+0x38>
 8000732:	2b00      	cmp	r3, #0
 8000734:	4b3b      	ldr	r3, [pc, #236]	; (8000824 <mcual_clock_get_frequency_Hz+0x104>)
 8000736:	bf18      	it	ne
 8000738:	2300      	movne	r3, #0
 800073a:	4a39      	ldr	r2, [pc, #228]	; (8000820 <mcual_clock_get_frequency_Hz+0x100>)
 800073c:	6892      	ldr	r2, [r2, #8]
 800073e:	f002 02f0 	and.w	r2, r2, #240	; 0xf0
 8000742:	2ab0      	cmp	r2, #176	; 0xb0
 8000744:	d041      	beq.n	80007ca <mcual_clock_get_frequency_Hz+0xaa>
 8000746:	d821      	bhi.n	800078c <mcual_clock_get_frequency_Hz+0x6c>
 8000748:	2a90      	cmp	r2, #144	; 0x90
 800074a:	d03a      	beq.n	80007c2 <mcual_clock_get_frequency_Hz+0xa2>
 800074c:	2aa0      	cmp	r2, #160	; 0xa0
 800074e:	d03a      	beq.n	80007c6 <mcual_clock_get_frequency_Hz+0xa6>
 8000750:	2a80      	cmp	r2, #128	; 0x80
 8000752:	d120      	bne.n	8000796 <mcual_clock_get_frequency_Hz+0x76>
 8000754:	085b      	lsrs	r3, r3, #1
 8000756:	e01e      	b.n	8000796 <mcual_clock_get_frequency_Hz+0x76>
 8000758:	6853      	ldr	r3, [r2, #4]
 800075a:	4932      	ldr	r1, [pc, #200]	; (8000824 <mcual_clock_get_frequency_Hz+0x104>)
 800075c:	6854      	ldr	r4, [r2, #4]
 800075e:	f413 0f80 	tst.w	r3, #4194304	; 0x400000
 8000762:	4b31      	ldr	r3, [pc, #196]	; (8000828 <mcual_clock_get_frequency_Hz+0x108>)
 8000764:	bf08      	it	eq
 8000766:	460b      	moveq	r3, r1
 8000768:	6851      	ldr	r1, [r2, #4]
 800076a:	6852      	ldr	r2, [r2, #4]
 800076c:	f3c2 4201 	ubfx	r2, r2, #16, #2
 8000770:	3201      	adds	r2, #1
 8000772:	f3c1 1188 	ubfx	r1, r1, #6, #9
 8000776:	f004 043f 	and.w	r4, r4, #63	; 0x3f
 800077a:	0052      	lsls	r2, r2, #1
 800077c:	fbb3 f3f4 	udiv	r3, r3, r4
 8000780:	434b      	muls	r3, r1
 8000782:	fbb3 f3f2 	udiv	r3, r3, r2
 8000786:	e7d8      	b.n	800073a <mcual_clock_get_frequency_Hz+0x1a>
 8000788:	4b27      	ldr	r3, [pc, #156]	; (8000828 <mcual_clock_get_frequency_Hz+0x108>)
 800078a:	e7d6      	b.n	800073a <mcual_clock_get_frequency_Hz+0x1a>
 800078c:	2ad0      	cmp	r2, #208	; 0xd0
 800078e:	d020      	beq.n	80007d2 <mcual_clock_get_frequency_Hz+0xb2>
 8000790:	d811      	bhi.n	80007b6 <mcual_clock_get_frequency_Hz+0x96>
 8000792:	2ac0      	cmp	r2, #192	; 0xc0
 8000794:	d01b      	beq.n	80007ce <mcual_clock_get_frequency_Hz+0xae>
 8000796:	b160      	cbz	r0, 80007b2 <mcual_clock_get_frequency_Hz+0x92>
 8000798:	2801      	cmp	r0, #1
 800079a:	d126      	bne.n	80007ea <mcual_clock_get_frequency_Hz+0xca>
 800079c:	4a20      	ldr	r2, [pc, #128]	; (8000820 <mcual_clock_get_frequency_Hz+0x100>)
 800079e:	6892      	ldr	r2, [r2, #8]
 80007a0:	f402 52e0 	and.w	r2, r2, #7168	; 0x1c00
 80007a4:	f5b2 5fa0 	cmp.w	r2, #5120	; 0x1400
 80007a8:	d034      	beq.n	8000814 <mcual_clock_get_frequency_Hz+0xf4>
 80007aa:	d816      	bhi.n	80007da <mcual_clock_get_frequency_Hz+0xba>
 80007ac:	f5b2 5f80 	cmp.w	r2, #4096	; 0x1000
 80007b0:	d02e      	beq.n	8000810 <mcual_clock_get_frequency_Hz+0xf0>
 80007b2:	4618      	mov	r0, r3
 80007b4:	bd10      	pop	{r4, pc}
 80007b6:	2ae0      	cmp	r2, #224	; 0xe0
 80007b8:	d00d      	beq.n	80007d6 <mcual_clock_get_frequency_Hz+0xb6>
 80007ba:	2af0      	cmp	r2, #240	; 0xf0
 80007bc:	d1eb      	bne.n	8000796 <mcual_clock_get_frequency_Hz+0x76>
 80007be:	0a5b      	lsrs	r3, r3, #9
 80007c0:	e7e9      	b.n	8000796 <mcual_clock_get_frequency_Hz+0x76>
 80007c2:	089b      	lsrs	r3, r3, #2
 80007c4:	e7e7      	b.n	8000796 <mcual_clock_get_frequency_Hz+0x76>
 80007c6:	08db      	lsrs	r3, r3, #3
 80007c8:	e7e5      	b.n	8000796 <mcual_clock_get_frequency_Hz+0x76>
 80007ca:	091b      	lsrs	r3, r3, #4
 80007cc:	e7e3      	b.n	8000796 <mcual_clock_get_frequency_Hz+0x76>
 80007ce:	099b      	lsrs	r3, r3, #6
 80007d0:	e7e1      	b.n	8000796 <mcual_clock_get_frequency_Hz+0x76>
 80007d2:	09db      	lsrs	r3, r3, #7
 80007d4:	e7df      	b.n	8000796 <mcual_clock_get_frequency_Hz+0x76>
 80007d6:	0a1b      	lsrs	r3, r3, #8
 80007d8:	e7dd      	b.n	8000796 <mcual_clock_get_frequency_Hz+0x76>
 80007da:	f5b2 5fc0 	cmp.w	r2, #6144	; 0x1800
 80007de:	d01b      	beq.n	8000818 <mcual_clock_get_frequency_Hz+0xf8>
 80007e0:	f5b2 5fe0 	cmp.w	r2, #7168	; 0x1c00
 80007e4:	d1e5      	bne.n	80007b2 <mcual_clock_get_frequency_Hz+0x92>
 80007e6:	091b      	lsrs	r3, r3, #4
 80007e8:	e7e3      	b.n	80007b2 <mcual_clock_get_frequency_Hz+0x92>
 80007ea:	2802      	cmp	r0, #2
 80007ec:	d116      	bne.n	800081c <mcual_clock_get_frequency_Hz+0xfc>
 80007ee:	4a0c      	ldr	r2, [pc, #48]	; (8000820 <mcual_clock_get_frequency_Hz+0x100>)
 80007f0:	6892      	ldr	r2, [r2, #8]
 80007f2:	f402 4260 	and.w	r2, r2, #57344	; 0xe000
 80007f6:	f5b2 4f20 	cmp.w	r2, #40960	; 0xa000
 80007fa:	d00b      	beq.n	8000814 <mcual_clock_get_frequency_Hz+0xf4>
 80007fc:	d802      	bhi.n	8000804 <mcual_clock_get_frequency_Hz+0xe4>
 80007fe:	f5b2 4f00 	cmp.w	r2, #32768	; 0x8000
 8000802:	e7d5      	b.n	80007b0 <mcual_clock_get_frequency_Hz+0x90>
 8000804:	f5b2 4f40 	cmp.w	r2, #49152	; 0xc000
 8000808:	d006      	beq.n	8000818 <mcual_clock_get_frequency_Hz+0xf8>
 800080a:	f5b2 4f60 	cmp.w	r2, #57344	; 0xe000
 800080e:	e7e9      	b.n	80007e4 <mcual_clock_get_frequency_Hz+0xc4>
 8000810:	085b      	lsrs	r3, r3, #1
 8000812:	e7ce      	b.n	80007b2 <mcual_clock_get_frequency_Hz+0x92>
 8000814:	089b      	lsrs	r3, r3, #2
 8000816:	e7cc      	b.n	80007b2 <mcual_clock_get_frequency_Hz+0x92>
 8000818:	08db      	lsrs	r3, r3, #3
 800081a:	e7ca      	b.n	80007b2 <mcual_clock_get_frequency_Hz+0x92>
 800081c:	2300      	movs	r3, #0
 800081e:	e7c8      	b.n	80007b2 <mcual_clock_get_frequency_Hz+0x92>
 8000820:	40023800 	andmi	r3, r2, r0, lsl #16
 8000824:	00f42400 	rscseq	r2, r4, r0, lsl #8
 8000828:	00b71b00 	adcseq	r1, r7, r0, lsl #22

0800082c <cocobot_com_transmit_tx_queue>:
 800082c:	e92d 47f3 	stmdb	sp!, {r0, r1, r4, r5, r6, r7, r8, r9, sl, lr}
 8000830:	f8df e074 	ldr.w	lr, [pc, #116]	; 80008a8 <cocobot_com_transmit_tx_queue+0x7c>
 8000834:	4f1b      	ldr	r7, [pc, #108]	; (80008a4 <cocobot_com_transmit_tx_queue+0x78>)
 8000836:	f8df 9074 	ldr.w	r9, [pc, #116]	; 80008ac <cocobot_com_transmit_tx_queue+0x80>
 800083a:	f8df c074 	ldr.w	ip, [pc, #116]	; 80008b0 <cocobot_com_transmit_tx_queue+0x84>
 800083e:	f8df a074 	ldr.w	sl, [pc, #116]	; 80008b4 <cocobot_com_transmit_tx_queue+0x88>
 8000842:	4676      	mov	r6, lr
 8000844:	f04f 0800 	mov.w	r8, #0
 8000848:	f8de 301c 	ldr.w	r3, [lr, #28]
 800084c:	b33b      	cbz	r3, 800089e <cocobot_com_transmit_tx_queue+0x72>
 800084e:	683c      	ldr	r4, [r7, #0]
 8000850:	3401      	adds	r4, #1
 8000852:	2c40      	cmp	r4, #64	; 0x40
 8000854:	bfa8      	it	ge
 8000856:	2400      	movge	r4, #0
 8000858:	b672      	cpsid	i
 800085a:	3304      	adds	r3, #4
 800085c:	cb0f      	ldmia	r3, {r0, r1, r2, r3}
 800085e:	683d      	ldr	r5, [r7, #0]
 8000860:	eb09 1505 	add.w	r5, r9, r5, lsl #4
 8000864:	e885 000f 	stmia.w	r5, {r0, r1, r2, r3}
 8000868:	603c      	str	r4, [r7, #0]
 800086a:	b662      	cpsie	i
 800086c:	f8dc 3014 	ldr.w	r3, [ip, #20]
 8000870:	f043 0301 	orr.w	r3, r3, #1
 8000874:	f8cc 3014 	str.w	r3, [ip, #20]
 8000878:	f8cd 8004 	str.w	r8, [sp, #4]
 800087c:	e002      	b.n	8000884 <cocobot_com_transmit_tx_queue+0x58>
 800087e:	9b01      	ldr	r3, [sp, #4]
 8000880:	3301      	adds	r3, #1
 8000882:	9301      	str	r3, [sp, #4]
 8000884:	9b01      	ldr	r3, [sp, #4]
 8000886:	4553      	cmp	r3, sl
 8000888:	d9f9      	bls.n	800087e <cocobot_com_transmit_tx_queue+0x52>
 800088a:	69f3      	ldr	r3, [r6, #28]
 800088c:	681a      	ldr	r2, [r3, #0]
 800088e:	61f2      	str	r2, [r6, #28]
 8000890:	68f2      	ldr	r2, [r6, #12]
 8000892:	601a      	str	r2, [r3, #0]
 8000894:	60f3      	str	r3, [r6, #12]
 8000896:	8a73      	ldrh	r3, [r6, #18]
 8000898:	3b01      	subs	r3, #1
 800089a:	8273      	strh	r3, [r6, #18]
 800089c:	e7d4      	b.n	8000848 <cocobot_com_transmit_tx_queue+0x1c>
 800089e:	b002      	add	sp, #8
 80008a0:	e8bd 87f0 	ldmia.w	sp!, {r4, r5, r6, r7, r8, r9, sl, pc}
 80008a4:	200022e8 	andcs	r2, r0, r8, ror #5
 80008a8:	20000068 	andcs	r0, r0, r8, rrx
 80008ac:	20000a40 	andcs	r0, r0, r0, asr #20
 80008b0:	40006400 	andmi	r6, r0, r0, lsl #8
 80008b4:	000f423f 	andeq	r4, pc, pc, lsr r2	; <UNPREDICTABLE>

080008b8 <cocobot_com_should_accept_transfert>:
 80008b8:	2b01      	cmp	r3, #1
 80008ba:	b530      	push	{r4, r5, lr}
 80008bc:	d121      	bne.n	8000902 <cocobot_com_should_accept_transfert+0x4a>
 80008be:	2a01      	cmp	r2, #1
 80008c0:	d107      	bne.n	80008d2 <cocobot_com_should_accept_transfert+0x1a>
 80008c2:	a51c      	add	r5, pc, #112	; (adr r5, 8000934 <cocobot_com_should_accept_transfert+0x7c>)
 80008c4:	e9d5 4500 	ldrd	r4, r5, [r5]
 80008c8:	e9c1 4500 	strd	r4, r5, [r1]
 80008cc:	4613      	mov	r3, r2
 80008ce:	4618      	mov	r0, r3
 80008d0:	bd30      	pop	{r4, r5, pc}
 80008d2:	2a05      	cmp	r2, #5
 80008d4:	d105      	bne.n	80008e2 <cocobot_com_should_accept_transfert+0x2a>
 80008d6:	a519      	add	r5, pc, #100	; (adr r5, 800093c <cocobot_com_should_accept_transfert+0x84>)
 80008d8:	e9d5 4500 	ldrd	r4, r5, [r5]
 80008dc:	e9c1 4500 	strd	r4, r5, [r1]
 80008e0:	e7f5      	b.n	80008ce <cocobot_com_should_accept_transfert+0x16>
 80008e2:	2a0b      	cmp	r2, #11
 80008e4:	d103      	bne.n	80008ee <cocobot_com_should_accept_transfert+0x36>
 80008e6:	a517      	add	r5, pc, #92	; (adr r5, 8000944 <cocobot_com_should_accept_transfert+0x8c>)
 80008e8:	e9d5 4500 	ldrd	r4, r5, [r5]
 80008ec:	e7f6      	b.n	80008dc <cocobot_com_should_accept_transfert+0x24>
 80008ee:	2a28      	cmp	r2, #40	; 0x28
 80008f0:	d115      	bne.n	800091e <cocobot_com_should_accept_transfert+0x66>
 80008f2:	a516      	add	r5, pc, #88	; (adr r5, 800094c <cocobot_com_should_accept_transfert+0x94>)
 80008f4:	e9d5 4500 	ldrd	r4, r5, [r5]
 80008f8:	e9c1 4500 	strd	r4, r5, [r1]
 80008fc:	f003 0301 	and.w	r3, r3, #1
 8000900:	e7e5      	b.n	80008ce <cocobot_com_should_accept_transfert+0x16>
 8000902:	b963      	cbnz	r3, 800091e <cocobot_com_should_accept_transfert+0x66>
 8000904:	2a30      	cmp	r2, #48	; 0x30
 8000906:	d1f9      	bne.n	80008fc <cocobot_com_should_accept_transfert+0x44>
 8000908:	4a09      	ldr	r2, [pc, #36]	; (8000930 <cocobot_com_should_accept_transfert+0x78>)
 800090a:	7812      	ldrb	r2, [r2, #0]
 800090c:	2a02      	cmp	r2, #2
 800090e:	d1f5      	bne.n	80008fc <cocobot_com_should_accept_transfert+0x44>
 8000910:	a305      	add	r3, pc, #20	; (adr r3, 8000928 <cocobot_com_should_accept_transfert+0x70>)
 8000912:	e9d3 2300 	ldrd	r2, r3, [r3]
 8000916:	e9c1 2300 	strd	r2, r3, [r1]
 800091a:	2301      	movs	r3, #1
 800091c:	e7ee      	b.n	80008fc <cocobot_com_should_accept_transfert+0x44>
 800091e:	2300      	movs	r3, #0
 8000920:	e7ec      	b.n	80008fc <cocobot_com_should_accept_transfert+0x44>
 8000922:	bf00      	nop
 8000924:	f3af 8000 	nop.w
 8000928:	9f33f678 	svcls	0x0033f678
 800092c:	8dcdca93 	vstrhi	s25, [sp, #588]	; 0x24c
 8000930:	20000614 	andcs	r0, r0, r4, lsl r6
 8000934:	21c46a9e 			; <UNDEFINED> instruction: 0x21c46a9e
 8000938:	ee468a81 	vmla.f32	s17, s13, s2
 800093c:	4a3017f0 	bmi	8c06904 <__fini_array_end+0xc03d20>
 8000940:	569e0539 			; <UNDEFINED> instruction: 0x569e0539
 8000944:	39d1a4d5 	ldmibcc	r1, {r0, r2, r4, r6, r7, sl, sp, pc}^
 8000948:	a7b622f9 			; <UNDEFINED> instruction: 0xa7b622f9
 800094c:	72724126 	rsbsvc	r4, r2, #-2147483639	; 0x80000009
 8000950:	b7d725df 			; <UNDEFINED> instruction: 0xb7d725df

08000954 <createRxState.constprop.9>:
 8000954:	b570      	push	{r4, r5, r6, lr}
 8000956:	b088      	sub	sp, #32
 8000958:	4604      	mov	r4, r0
 800095a:	2220      	movs	r2, #32
 800095c:	2100      	movs	r1, #0
 800095e:	4668      	mov	r0, sp
 8000960:	f001 ff92 	bl	8002888 <memset>
 8000964:	9404      	str	r4, [sp, #16]
 8000966:	f7ff fc2f 	bl	80001c8 <allocateBlock.constprop.25>
 800096a:	4605      	mov	r5, r0
 800096c:	b158      	cbz	r0, 8000986 <createRxState.constprop.9+0x32>
 800096e:	466b      	mov	r3, sp
 8000970:	4604      	mov	r4, r0
 8000972:	ae08      	add	r6, sp, #32
 8000974:	461a      	mov	r2, r3
 8000976:	ca03      	ldmia	r2!, {r0, r1}
 8000978:	42b2      	cmp	r2, r6
 800097a:	6020      	str	r0, [r4, #0]
 800097c:	6061      	str	r1, [r4, #4]
 800097e:	4613      	mov	r3, r2
 8000980:	f104 0408 	add.w	r4, r4, #8
 8000984:	d1f6      	bne.n	8000974 <createRxState.constprop.9+0x20>
 8000986:	4628      	mov	r0, r5
 8000988:	b008      	add	sp, #32
 800098a:	bd70      	pop	{r4, r5, r6, pc}

0800098c <enqueueTxFrames.constprop.22>:
 800098c:	e92d 4ff7 	stmdb	sp!, {r0, r1, r2, r4, r5, r6, r7, r8, r9, sl, fp, lr}
 8000990:	f8bd 5030 	ldrh.w	r5, [sp, #48]	; 0x30
 8000994:	9000      	str	r0, [sp, #0]
 8000996:	468b      	mov	fp, r1
 8000998:	9201      	str	r2, [sp, #4]
 800099a:	469a      	mov	sl, r3
 800099c:	b11d      	cbz	r5, 80009a6 <enqueueTxFrames.constprop.22+0x1a>
 800099e:	2b00      	cmp	r3, #0
 80009a0:	d073      	beq.n	8000a8a <enqueueTxFrames.constprop.22+0xfe>
 80009a2:	2d07      	cmp	r5, #7
 80009a4:	d827      	bhi.n	80009f6 <enqueueTxFrames.constprop.22+0x6a>
 80009a6:	f7ff fc0f 	bl	80001c8 <allocateBlock.constprop.25>
 80009aa:	4604      	mov	r4, r0
 80009ac:	b928      	cbnz	r0, 80009ba <enqueueTxFrames.constprop.22+0x2e>
 80009ae:	f06f 0402 	mvn.w	r4, #2
 80009b2:	4620      	mov	r0, r4
 80009b4:	b003      	add	sp, #12
 80009b6:	e8bd 8ff0 	ldmia.w	sp!, {r4, r5, r6, r7, r8, r9, sl, fp, pc}
 80009ba:	2214      	movs	r2, #20
 80009bc:	2100      	movs	r1, #0
 80009be:	f001 ff63 	bl	8002888 <memset>
 80009c2:	462a      	mov	r2, r5
 80009c4:	4651      	mov	r1, sl
 80009c6:	f104 0008 	add.w	r0, r4, #8
 80009ca:	f001 ff4f 	bl	800286c <memcpy>
 80009ce:	1c6b      	adds	r3, r5, #1
 80009d0:	7423      	strb	r3, [r4, #16]
 80009d2:	f89b 3000 	ldrb.w	r3, [fp]
 80009d6:	482e      	ldr	r0, [pc, #184]	; (8000a90 <enqueueTxFrames.constprop.22+0x104>)
 80009d8:	4425      	add	r5, r4
 80009da:	f003 031f 	and.w	r3, r3, #31
 80009de:	f063 033f 	orn	r3, r3, #63	; 0x3f
 80009e2:	722b      	strb	r3, [r5, #8]
 80009e4:	9b00      	ldr	r3, [sp, #0]
 80009e6:	f043 4300 	orr.w	r3, r3, #2147483648	; 0x80000000
 80009ea:	6063      	str	r3, [r4, #4]
 80009ec:	4621      	mov	r1, r4
 80009ee:	f7ff fca4 	bl	800033a <pushTxQueue.isra.0>
 80009f2:	2401      	movs	r4, #1
 80009f4:	e7dd      	b.n	80009b2 <enqueueTxFrames.constprop.22+0x26>
 80009f6:	2400      	movs	r4, #0
 80009f8:	f04f 0880 	mov.w	r8, #128	; 0x80
 80009fc:	46a1      	mov	r9, r4
 80009fe:	4626      	mov	r6, r4
 8000a00:	f7ff fbe2 	bl	80001c8 <allocateBlock.constprop.25>
 8000a04:	4607      	mov	r7, r0
 8000a06:	2800      	cmp	r0, #0
 8000a08:	d0d1      	beq.n	80009ae <enqueueTxFrames.constprop.22+0x22>
 8000a0a:	2214      	movs	r2, #20
 8000a0c:	2100      	movs	r1, #0
 8000a0e:	f001 ff3b 	bl	8002888 <memset>
 8000a12:	2e00      	cmp	r6, #0
 8000a14:	d137      	bne.n	8000a86 <enqueueTxFrames.constprop.22+0xfa>
 8000a16:	9b01      	ldr	r3, [sp, #4]
 8000a18:	813b      	strh	r3, [r7, #8]
 8000a1a:	2102      	movs	r1, #2
 8000a1c:	f101 0008 	add.w	r0, r1, #8
 8000a20:	eb0a 0c06 	add.w	ip, sl, r6
 8000a24:	4438      	add	r0, r7
 8000a26:	1c4a      	adds	r2, r1, #1
 8000a28:	42b5      	cmp	r5, r6
 8000a2a:	b2d2      	uxtb	r2, r2
 8000a2c:	d801      	bhi.n	8000a32 <enqueueTxFrames.constprop.22+0xa6>
 8000a2e:	460a      	mov	r2, r1
 8000a30:	e008      	b.n	8000a44 <enqueueTxFrames.constprop.22+0xb8>
 8000a32:	f81c 1b01 	ldrb.w	r1, [ip], #1
 8000a36:	f800 1b01 	strb.w	r1, [r0], #1
 8000a3a:	3601      	adds	r6, #1
 8000a3c:	2a06      	cmp	r2, #6
 8000a3e:	b2b6      	uxth	r6, r6
 8000a40:	4611      	mov	r1, r2
 8000a42:	d9f0      	bls.n	8000a26 <enqueueTxFrames.constprop.22+0x9a>
 8000a44:	f89b 1000 	ldrb.w	r1, [fp]
 8000a48:	f001 011f 	and.w	r1, r1, #31
 8000a4c:	42b5      	cmp	r5, r6
 8000a4e:	bf08      	it	eq
 8000a50:	f04f 0840 	moveq.w	r8, #64	; 0x40
 8000a54:	18b8      	adds	r0, r7, r2
 8000a56:	ea41 1149 	orr.w	r1, r1, r9, lsl #5
 8000a5a:	ea48 0301 	orr.w	r3, r8, r1
 8000a5e:	7203      	strb	r3, [r0, #8]
 8000a60:	9b00      	ldr	r3, [sp, #0]
 8000a62:	480b      	ldr	r0, [pc, #44]	; (8000a90 <enqueueTxFrames.constprop.22+0x104>)
 8000a64:	f043 4300 	orr.w	r3, r3, #2147483648	; 0x80000000
 8000a68:	3201      	adds	r2, #1
 8000a6a:	607b      	str	r3, [r7, #4]
 8000a6c:	743a      	strb	r2, [r7, #16]
 8000a6e:	4639      	mov	r1, r7
 8000a70:	f7ff fc63 	bl	800033a <pushTxQueue.isra.0>
 8000a74:	3401      	adds	r4, #1
 8000a76:	42b5      	cmp	r5, r6
 8000a78:	b224      	sxth	r4, r4
 8000a7a:	f089 0901 	eor.w	r9, r9, #1
 8000a7e:	f04f 0800 	mov.w	r8, #0
 8000a82:	d1bd      	bne.n	8000a00 <enqueueTxFrames.constprop.22+0x74>
 8000a84:	e795      	b.n	80009b2 <enqueueTxFrames.constprop.22+0x26>
 8000a86:	2100      	movs	r1, #0
 8000a88:	e7c8      	b.n	8000a1c <enqueueTxFrames.constprop.22+0x90>
 8000a8a:	f06f 0401 	mvn.w	r4, #1
 8000a8e:	e790      	b.n	80009b2 <enqueueTxFrames.constprop.22+0x26>
 8000a90:	20000084 	andcs	r0, r0, r4, lsl #1

08000a94 <cocobot_com_request_or_respond>:
 8000a94:	e92d 4ff7 	stmdb	sp!, {r0, r1, r2, r4, r5, r6, r7, r8, r9, sl, fp, lr}
 8000a98:	9f10      	ldr	r7, [sp, #64]	; 0x40
 8000a9a:	9d0d      	ldr	r5, [sp, #52]	; 0x34
 8000a9c:	f89d 803c 	ldrb.w	r8, [sp, #60]	; 0x3c
 8000aa0:	f8bd 6044 	ldrh.w	r6, [sp, #68]	; 0x44
 8000aa4:	469a      	mov	sl, r3
 8000aa6:	4691      	mov	r9, r2
 8000aa8:	f89d 3038 	ldrb.w	r3, [sp, #56]	; 0x38
 8000aac:	b90f      	cbnz	r7, 8000ab2 <cocobot_com_request_or_respond+0x1e>
 8000aae:	2e00      	cmp	r6, #0
 8000ab0:	d14d      	bne.n	8000b4e <cocobot_com_request_or_respond+0xba>
 8000ab2:	2b1f      	cmp	r3, #31
 8000ab4:	d84b      	bhi.n	8000b4e <cocobot_com_request_or_respond+0xba>
 8000ab6:	4a29      	ldr	r2, [pc, #164]	; (8000b5c <cocobot_com_request_or_respond+0xc8>)
 8000ab8:	7814      	ldrb	r4, [r2, #0]
 8000aba:	2c00      	cmp	r4, #0
 8000abc:	d04a      	beq.n	8000b54 <cocobot_com_request_or_respond+0xc0>
 8000abe:	ea44 2400 	orr.w	r4, r4, r0, lsl #8
 8000ac2:	ea44 34c8 	orr.w	r4, r4, r8, lsl #15
 8000ac6:	f89d 1030 	ldrb.w	r1, [sp, #48]	; 0x30
 8000aca:	ea44 6403 	orr.w	r4, r4, r3, lsl #24
 8000ace:	ea44 4401 	orr.w	r4, r4, r1, lsl #16
 8000ad2:	2e07      	cmp	r6, #7
 8000ad4:	f044 0480 	orr.w	r4, r4, #128	; 0x80
 8000ad8:	d936      	bls.n	8000b48 <cocobot_com_request_or_respond+0xb4>
 8000ada:	f04f 0b00 	mov.w	fp, #0
 8000ade:	f64f 7cff 	movw	ip, #65535	; 0xffff
 8000ae2:	f1cb 0220 	rsb	r2, fp, #32
 8000ae6:	f1ab 0320 	sub.w	r3, fp, #32
 8000aea:	fa29 f10b 	lsr.w	r1, r9, fp
 8000aee:	fa0a f202 	lsl.w	r2, sl, r2
 8000af2:	4311      	orrs	r1, r2
 8000af4:	fa2a f303 	lsr.w	r3, sl, r3
 8000af8:	4319      	orrs	r1, r3
 8000afa:	4660      	mov	r0, ip
 8000afc:	b2c9      	uxtb	r1, r1
 8000afe:	f7ff fc5f 	bl	80003c0 <crcAddByte>
 8000b02:	f10b 0b08 	add.w	fp, fp, #8
 8000b06:	f1bb 0f40 	cmp.w	fp, #64	; 0x40
 8000b0a:	4684      	mov	ip, r0
 8000b0c:	d1e9      	bne.n	8000ae2 <cocobot_com_request_or_respond+0x4e>
 8000b0e:	4632      	mov	r2, r6
 8000b10:	4639      	mov	r1, r7
 8000b12:	f7ff fc66 	bl	80003e2 <crcAdd>
 8000b16:	4602      	mov	r2, r0
 8000b18:	9600      	str	r6, [sp, #0]
 8000b1a:	463b      	mov	r3, r7
 8000b1c:	4629      	mov	r1, r5
 8000b1e:	4620      	mov	r0, r4
 8000b20:	f7ff ff34 	bl	800098c <enqueueTxFrames.constprop.22>
 8000b24:	f1b8 0f01 	cmp.w	r8, #1
 8000b28:	d106      	bne.n	8000b38 <cocobot_com_request_or_respond+0xa4>
 8000b2a:	782b      	ldrb	r3, [r5, #0]
 8000b2c:	3301      	adds	r3, #1
 8000b2e:	b2db      	uxtb	r3, r3
 8000b30:	2b1f      	cmp	r3, #31
 8000b32:	bf88      	it	hi
 8000b34:	2300      	movhi	r3, #0
 8000b36:	702b      	strb	r3, [r5, #0]
 8000b38:	2800      	cmp	r0, #0
 8000b3a:	dc02      	bgt.n	8000b42 <cocobot_com_request_or_respond+0xae>
 8000b3c:	4b08      	ldr	r3, [pc, #32]	; (8000b60 <cocobot_com_request_or_respond+0xcc>)
 8000b3e:	2201      	movs	r2, #1
 8000b40:	701a      	strb	r2, [r3, #0]
 8000b42:	b003      	add	sp, #12
 8000b44:	e8bd 8ff0 	ldmia.w	sp!, {r4, r5, r6, r7, r8, r9, sl, fp, pc}
 8000b48:	f64f 72ff 	movw	r2, #65535	; 0xffff
 8000b4c:	e7e4      	b.n	8000b18 <cocobot_com_request_or_respond+0x84>
 8000b4e:	f06f 0001 	mvn.w	r0, #1
 8000b52:	e7f3      	b.n	8000b3c <cocobot_com_request_or_respond+0xa8>
 8000b54:	f06f 0003 	mvn.w	r0, #3
 8000b58:	e7f0      	b.n	8000b3c <cocobot_com_request_or_respond+0xa8>
 8000b5a:	bf00      	nop
 8000b5c:	20000068 	andcs	r0, r0, r8, rrx
 8000b60:	2000048c 	andcs	r0, r0, ip, lsl #9

08000b64 <canardEncodeScalar>:
 8000b64:	b530      	push	{r4, r5, lr}
 8000b66:	2a01      	cmp	r2, #1
 8000b68:	b085      	sub	sp, #20
 8000b6a:	f04f 0400 	mov.w	r4, #0
 8000b6e:	e9cd 4402 	strd	r4, r4, [sp, #8]
 8000b72:	d10e      	bne.n	8000b92 <canardEncodeScalar+0x2e>
 8000b74:	781b      	ldrb	r3, [r3, #0]
 8000b76:	f88d 3008 	strb.w	r3, [sp, #8]
 8000b7a:	ab04      	add	r3, sp, #16
 8000b7c:	eb03 05d2 	add.w	r5, r3, r2, lsr #3
 8000b80:	4254      	negs	r4, r2
 8000b82:	f815 3c08 	ldrb.w	r3, [r5, #-8]
 8000b86:	f004 0407 	and.w	r4, r4, #7
 8000b8a:	40a3      	lsls	r3, r4
 8000b8c:	f805 3c08 	strb.w	r3, [r5, #-8]
 8000b90:	e006      	b.n	8000ba0 <canardEncodeScalar+0x3c>
 8000b92:	2a08      	cmp	r2, #8
 8000b94:	d80c      	bhi.n	8000bb0 <canardEncodeScalar+0x4c>
 8000b96:	781b      	ldrb	r3, [r3, #0]
 8000b98:	f88d 3008 	strb.w	r3, [sp, #8]
 8000b9c:	0753      	lsls	r3, r2, #29
 8000b9e:	d1ec      	bne.n	8000b7a <canardEncodeScalar+0x16>
 8000ba0:	9100      	str	r1, [sp, #0]
 8000ba2:	4603      	mov	r3, r0
 8000ba4:	2100      	movs	r1, #0
 8000ba6:	a802      	add	r0, sp, #8
 8000ba8:	f7ff fc26 	bl	80003f8 <copyBitArray>
 8000bac:	b005      	add	sp, #20
 8000bae:	bd30      	pop	{r4, r5, pc}
 8000bb0:	2a10      	cmp	r2, #16
 8000bb2:	d803      	bhi.n	8000bbc <canardEncodeScalar+0x58>
 8000bb4:	881b      	ldrh	r3, [r3, #0]
 8000bb6:	f8ad 3008 	strh.w	r3, [sp, #8]
 8000bba:	e7ef      	b.n	8000b9c <canardEncodeScalar+0x38>
 8000bbc:	2a20      	cmp	r2, #32
 8000bbe:	bf8d      	iteet	hi
 8000bc0:	e9d3 4500 	ldrdhi	r4, r5, [r3]
 8000bc4:	681b      	ldrls	r3, [r3, #0]
 8000bc6:	9302      	strls	r3, [sp, #8]
 8000bc8:	e9cd 4502 	strdhi	r4, r5, [sp, #8]
 8000bcc:	e7e6      	b.n	8000b9c <canardEncodeScalar+0x38>
	...

08000bd0 <uavcan_protocol_NodeStatus_encode_internal.constprop.51>:
 8000bd0:	b538      	push	{r3, r4, r5, lr}
 8000bd2:	4d1a      	ldr	r5, [pc, #104]	; (8000c3c <uavcan_protocol_NodeStatus_encode_internal.constprop.51+0x6c>)
 8000bd4:	4604      	mov	r4, r0
 8000bd6:	4603      	mov	r3, r0
 8000bd8:	2220      	movs	r2, #32
 8000bda:	4628      	mov	r0, r5
 8000bdc:	2100      	movs	r1, #0
 8000bde:	f7ff ffc1 	bl	8000b64 <canardEncodeScalar>
 8000be2:	7922      	ldrb	r2, [r4, #4]
 8000be4:	4623      	mov	r3, r4
 8000be6:	2a03      	cmp	r2, #3
 8000be8:	bf28      	it	cs
 8000bea:	2203      	movcs	r2, #3
 8000bec:	f803 2f04 	strb.w	r2, [r3, #4]!
 8000bf0:	4628      	mov	r0, r5
 8000bf2:	2202      	movs	r2, #2
 8000bf4:	2120      	movs	r1, #32
 8000bf6:	f7ff ffb5 	bl	8000b64 <canardEncodeScalar>
 8000bfa:	7962      	ldrb	r2, [r4, #5]
 8000bfc:	4623      	mov	r3, r4
 8000bfe:	2a07      	cmp	r2, #7
 8000c00:	bf28      	it	cs
 8000c02:	2207      	movcs	r2, #7
 8000c04:	f803 2f05 	strb.w	r2, [r3, #5]!
 8000c08:	4628      	mov	r0, r5
 8000c0a:	2203      	movs	r2, #3
 8000c0c:	2122      	movs	r1, #34	; 0x22
 8000c0e:	f7ff ffa9 	bl	8000b64 <canardEncodeScalar>
 8000c12:	79a2      	ldrb	r2, [r4, #6]
 8000c14:	4623      	mov	r3, r4
 8000c16:	2a07      	cmp	r2, #7
 8000c18:	bf28      	it	cs
 8000c1a:	2207      	movcs	r2, #7
 8000c1c:	f803 2f06 	strb.w	r2, [r3, #6]!
 8000c20:	4628      	mov	r0, r5
 8000c22:	2203      	movs	r2, #3
 8000c24:	2125      	movs	r1, #37	; 0x25
 8000c26:	f7ff ff9d 	bl	8000b64 <canardEncodeScalar>
 8000c2a:	4628      	mov	r0, r5
 8000c2c:	f104 0308 	add.w	r3, r4, #8
 8000c30:	2210      	movs	r2, #16
 8000c32:	2128      	movs	r1, #40	; 0x28
 8000c34:	f7ff ff96 	bl	8000b64 <canardEncodeScalar>
 8000c38:	2038      	movs	r0, #56	; 0x38
 8000c3a:	bd38      	pop	{r3, r4, r5, pc}
 8000c3c:	2000048d 	andcs	r0, r0, sp, lsl #9

08000c40 <uavcan_protocol_param_Value_encode_internal.constprop.42>:
 8000c40:	b5f8      	push	{r3, r4, r5, r6, r7, lr}
 8000c42:	4605      	mov	r5, r0
 8000c44:	4603      	mov	r3, r0
 8000c46:	2203      	movs	r2, #3
 8000c48:	4822      	ldr	r0, [pc, #136]	; (8000cd4 <uavcan_protocol_param_Value_encode_internal.constprop.42+0x94>)
 8000c4a:	460e      	mov	r6, r1
 8000c4c:	f7ff ff8a 	bl	8000b64 <canardEncodeScalar>
 8000c50:	782b      	ldrb	r3, [r5, #0]
 8000c52:	1cf4      	adds	r4, r6, #3
 8000c54:	b153      	cbz	r3, 8000c6c <uavcan_protocol_param_Value_encode_internal.constprop.42+0x2c>
 8000c56:	2b01      	cmp	r3, #1
 8000c58:	d10a      	bne.n	8000c70 <uavcan_protocol_param_Value_encode_internal.constprop.42+0x30>
 8000c5a:	4621      	mov	r1, r4
 8000c5c:	f105 0308 	add.w	r3, r5, #8
 8000c60:	2240      	movs	r2, #64	; 0x40
 8000c62:	481c      	ldr	r0, [pc, #112]	; (8000cd4 <uavcan_protocol_param_Value_encode_internal.constprop.42+0x94>)
 8000c64:	f7ff ff7e 	bl	8000b64 <canardEncodeScalar>
 8000c68:	f106 0443 	add.w	r4, r6, #67	; 0x43
 8000c6c:	4620      	mov	r0, r4
 8000c6e:	bdf8      	pop	{r3, r4, r5, r6, r7, pc}
 8000c70:	2b02      	cmp	r3, #2
 8000c72:	d109      	bne.n	8000c88 <uavcan_protocol_param_Value_encode_internal.constprop.42+0x48>
 8000c74:	4621      	mov	r1, r4
 8000c76:	f105 0308 	add.w	r3, r5, #8
 8000c7a:	2220      	movs	r2, #32
 8000c7c:	4815      	ldr	r0, [pc, #84]	; (8000cd4 <uavcan_protocol_param_Value_encode_internal.constprop.42+0x94>)
 8000c7e:	f7ff ff71 	bl	8000b64 <canardEncodeScalar>
 8000c82:	f106 0423 	add.w	r4, r6, #35	; 0x23
 8000c86:	e7f1      	b.n	8000c6c <uavcan_protocol_param_Value_encode_internal.constprop.42+0x2c>
 8000c88:	2b03      	cmp	r3, #3
 8000c8a:	d109      	bne.n	8000ca0 <uavcan_protocol_param_Value_encode_internal.constprop.42+0x60>
 8000c8c:	4621      	mov	r1, r4
 8000c8e:	f105 0308 	add.w	r3, r5, #8
 8000c92:	2208      	movs	r2, #8
 8000c94:	480f      	ldr	r0, [pc, #60]	; (8000cd4 <uavcan_protocol_param_Value_encode_internal.constprop.42+0x94>)
 8000c96:	f7ff ff65 	bl	8000b64 <canardEncodeScalar>
 8000c9a:	f106 040b 	add.w	r4, r6, #11
 8000c9e:	e7e5      	b.n	8000c6c <uavcan_protocol_param_Value_encode_internal.constprop.42+0x2c>
 8000ca0:	2b04      	cmp	r3, #4
 8000ca2:	d1e3      	bne.n	8000c6c <uavcan_protocol_param_Value_encode_internal.constprop.42+0x2c>
 8000ca4:	4621      	mov	r1, r4
 8000ca6:	f105 0308 	add.w	r3, r5, #8
 8000caa:	2208      	movs	r2, #8
 8000cac:	4809      	ldr	r0, [pc, #36]	; (8000cd4 <uavcan_protocol_param_Value_encode_internal.constprop.42+0x94>)
 8000cae:	4f09      	ldr	r7, [pc, #36]	; (8000cd4 <uavcan_protocol_param_Value_encode_internal.constprop.42+0x94>)
 8000cb0:	f7ff ff58 	bl	8000b64 <canardEncodeScalar>
 8000cb4:	f106 040b 	add.w	r4, r6, #11
 8000cb8:	2600      	movs	r6, #0
 8000cba:	7a2b      	ldrb	r3, [r5, #8]
 8000cbc:	429e      	cmp	r6, r3
 8000cbe:	d2d5      	bcs.n	8000c6c <uavcan_protocol_param_Value_encode_internal.constprop.42+0x2c>
 8000cc0:	68eb      	ldr	r3, [r5, #12]
 8000cc2:	4621      	mov	r1, r4
 8000cc4:	4433      	add	r3, r6
 8000cc6:	2208      	movs	r2, #8
 8000cc8:	4638      	mov	r0, r7
 8000cca:	f7ff ff4b 	bl	8000b64 <canardEncodeScalar>
 8000cce:	3408      	adds	r4, #8
 8000cd0:	3601      	adds	r6, #1
 8000cd2:	e7f2      	b.n	8000cba <uavcan_protocol_param_Value_encode_internal.constprop.42+0x7a>
 8000cd4:	2000048d 	andcs	r0, r0, sp, lsl #9

08000cd8 <uavcan_protocol_param_NumericValue_encode_internal.constprop.38>:
 8000cd8:	b538      	push	{r3, r4, r5, lr}
 8000cda:	4604      	mov	r4, r0
 8000cdc:	4603      	mov	r3, r0
 8000cde:	2202      	movs	r2, #2
 8000ce0:	480e      	ldr	r0, [pc, #56]	; (8000d1c <uavcan_protocol_param_NumericValue_encode_internal.constprop.38+0x44>)
 8000ce2:	460d      	mov	r5, r1
 8000ce4:	f7ff ff3e 	bl	8000b64 <canardEncodeScalar>
 8000ce8:	7823      	ldrb	r3, [r4, #0]
 8000cea:	1ca9      	adds	r1, r5, #2
 8000cec:	b14b      	cbz	r3, 8000d02 <uavcan_protocol_param_NumericValue_encode_internal.constprop.38+0x2a>
 8000cee:	2b01      	cmp	r3, #1
 8000cf0:	d109      	bne.n	8000d06 <uavcan_protocol_param_NumericValue_encode_internal.constprop.38+0x2e>
 8000cf2:	f104 0308 	add.w	r3, r4, #8
 8000cf6:	2240      	movs	r2, #64	; 0x40
 8000cf8:	4808      	ldr	r0, [pc, #32]	; (8000d1c <uavcan_protocol_param_NumericValue_encode_internal.constprop.38+0x44>)
 8000cfa:	f7ff ff33 	bl	8000b64 <canardEncodeScalar>
 8000cfe:	f105 0142 	add.w	r1, r5, #66	; 0x42
 8000d02:	4608      	mov	r0, r1
 8000d04:	bd38      	pop	{r3, r4, r5, pc}
 8000d06:	2b02      	cmp	r3, #2
 8000d08:	d1fb      	bne.n	8000d02 <uavcan_protocol_param_NumericValue_encode_internal.constprop.38+0x2a>
 8000d0a:	f104 0308 	add.w	r3, r4, #8
 8000d0e:	2220      	movs	r2, #32
 8000d10:	4802      	ldr	r0, [pc, #8]	; (8000d1c <uavcan_protocol_param_NumericValue_encode_internal.constprop.38+0x44>)
 8000d12:	f7ff ff27 	bl	8000b64 <canardEncodeScalar>
 8000d16:	f105 0122 	add.w	r1, r5, #34	; 0x22
 8000d1a:	e7f2      	b.n	8000d02 <uavcan_protocol_param_NumericValue_encode_internal.constprop.38+0x2a>
 8000d1c:	2000048d 	andcs	r0, r0, sp, lsl #9

08000d20 <canardDecodeScalar>:
 8000d20:	e92d 4ff0 	stmdb	sp!, {r4, r5, r6, r7, r8, r9, sl, fp, lr}
 8000d24:	b08b      	sub	sp, #44	; 0x2c
 8000d26:	460e      	mov	r6, r1
 8000d28:	4614      	mov	r4, r2
 8000d2a:	9304      	str	r3, [sp, #16]
 8000d2c:	f8dd a050 	ldr.w	sl, [sp, #80]	; 0x50
 8000d30:	4683      	mov	fp, r0
 8000d32:	2800      	cmp	r0, #0
 8000d34:	f000 810f 	beq.w	8000f56 <canardDecodeScalar+0x236>
 8000d38:	f1ba 0f00 	cmp.w	sl, #0
 8000d3c:	f000 810b 	beq.w	8000f56 <canardDecodeScalar+0x236>
 8000d40:	8a85      	ldrh	r5, [r0, #20]
 8000d42:	00ed      	lsls	r5, r5, #3
 8000d44:	2300      	movs	r3, #0
 8000d46:	42a9      	cmp	r1, r5
 8000d48:	e9cd 3308 	strd	r3, r3, [sp, #32]
 8000d4c:	d303      	bcc.n	8000d56 <canardDecodeScalar+0x36>
 8000d4e:	2000      	movs	r0, #0
 8000d50:	b00b      	add	sp, #44	; 0x2c
 8000d52:	e8bd 8ff0 	ldmia.w	sp!, {r4, r5, r6, r7, r8, r9, sl, fp, pc}
 8000d56:	188b      	adds	r3, r1, r2
 8000d58:	429d      	cmp	r5, r3
 8000d5a:	68c3      	ldr	r3, [r0, #12]
 8000d5c:	bf3a      	itte	cc
 8000d5e:	1a6d      	subcc	r5, r5, r1
 8000d60:	b2ed      	uxtbcc	r5, r5
 8000d62:	4615      	movcs	r5, r2
 8000d64:	b91b      	cbnz	r3, 8000d6e <canardDecodeScalar+0x4e>
 8000d66:	6903      	ldr	r3, [r0, #16]
 8000d68:	2b00      	cmp	r3, #0
 8000d6a:	f000 8095 	beq.w	8000e98 <canardDecodeScalar+0x178>
 8000d6e:	2e2f      	cmp	r6, #47	; 0x2f
 8000d70:	d867      	bhi.n	8000e42 <canardDecodeScalar+0x122>
 8000d72:	f1c6 0730 	rsb	r7, r6, #48	; 0x30
 8000d76:	42bd      	cmp	r5, r7
 8000d78:	f04f 0300 	mov.w	r3, #0
 8000d7c:	bf2c      	ite	cs
 8000d7e:	b2ff      	uxtbcs	r7, r7
 8000d80:	462f      	movcc	r7, r5
 8000d82:	9300      	str	r3, [sp, #0]
 8000d84:	4631      	mov	r1, r6
 8000d86:	ab08      	add	r3, sp, #32
 8000d88:	463a      	mov	r2, r7
 8000d8a:	f8db 0008 	ldr.w	r0, [fp, #8]
 8000d8e:	f7ff fb33 	bl	80003f8 <copyBitArray>
 8000d92:	eba5 0807 	sub.w	r8, r5, r7
 8000d96:	443e      	add	r6, r7
 8000d98:	fa5f f888 	uxtb.w	r8, r8
 8000d9c:	f8bb 3014 	ldrh.w	r3, [fp, #20]
 8000da0:	f103 5300 	add.w	r3, r3, #536870912	; 0x20000000
 8000da4:	3b06      	subs	r3, #6
 8000da6:	00db      	lsls	r3, r3, #3
 8000da8:	9305      	str	r3, [sp, #20]
 8000daa:	f8db 300c 	ldr.w	r3, [fp, #12]
 8000dae:	9303      	str	r3, [sp, #12]
 8000db0:	2130      	movs	r1, #48	; 0x30
 8000db2:	9b03      	ldr	r3, [sp, #12]
 8000db4:	b113      	cbz	r3, 8000dbc <canardDecodeScalar+0x9c>
 8000db6:	f1b8 0f00 	cmp.w	r8, #0
 8000dba:	d145      	bne.n	8000e48 <canardDecodeScalar+0x128>
 8000dbc:	f8db 0010 	ldr.w	r0, [fp, #16]
 8000dc0:	b140      	cbz	r0, 8000dd4 <canardDecodeScalar+0xb4>
 8000dc2:	f1b8 0f00 	cmp.w	r8, #0
 8000dc6:	d005      	beq.n	8000dd4 <canardDecodeScalar+0xb4>
 8000dc8:	9700      	str	r7, [sp, #0]
 8000dca:	ab08      	add	r3, sp, #32
 8000dcc:	4642      	mov	r2, r8
 8000dce:	1a71      	subs	r1, r6, r1
 8000dd0:	f7ff fb12 	bl	80003f8 <copyBitArray>
 8000dd4:	b228      	sxth	r0, r5
 8000dd6:	2d00      	cmp	r5, #0
 8000dd8:	d0b9      	beq.n	8000d4e <canardDecodeScalar+0x2e>
 8000dda:	0765      	lsls	r5, r4, #29
 8000ddc:	d00a      	beq.n	8000df4 <canardDecodeScalar+0xd4>
 8000dde:	ab0a      	add	r3, sp, #40	; 0x28
 8000de0:	eb03 01d4 	add.w	r1, r3, r4, lsr #3
 8000de4:	4262      	negs	r2, r4
 8000de6:	f811 3c08 	ldrb.w	r3, [r1, #-8]
 8000dea:	f002 0207 	and.w	r2, r2, #7
 8000dee:	4113      	asrs	r3, r2
 8000df0:	f801 3c08 	strb.w	r3, [r1, #-8]
 8000df4:	2c08      	cmp	r4, #8
 8000df6:	f240 80bc 	bls.w	8000f72 <canardDecodeScalar+0x252>
 8000dfa:	2c10      	cmp	r4, #16
 8000dfc:	f240 80bf 	bls.w	8000f7e <canardDecodeScalar+0x25e>
 8000e00:	2c20      	cmp	r4, #32
 8000e02:	f240 80c1 	bls.w	8000f88 <canardDecodeScalar+0x268>
 8000e06:	9b04      	ldr	r3, [sp, #16]
 8000e08:	2b00      	cmp	r3, #0
 8000e0a:	f000 809f 	beq.w	8000f4c <canardDecodeScalar+0x22c>
 8000e0e:	2308      	movs	r3, #8
 8000e10:	ebb4 0fc3 	cmp.w	r4, r3, lsl #3
 8000e14:	f000 80a5 	beq.w	8000f62 <canardDecodeScalar+0x242>
 8000e18:	2c08      	cmp	r4, #8
 8000e1a:	d842      	bhi.n	8000ea2 <canardDecodeScalar+0x182>
 8000e1c:	f89d 3020 	ldrb.w	r3, [sp, #32]
 8000e20:	1e62      	subs	r2, r4, #1
 8000e22:	fa23 f202 	lsr.w	r2, r3, r2
 8000e26:	07d1      	lsls	r1, r2, #31
 8000e28:	d506      	bpl.n	8000e38 <canardDecodeScalar+0x118>
 8000e2a:	f04f 32ff 	mov.w	r2, #4294967295	; 0xffffffff
 8000e2e:	fa02 f404 	lsl.w	r4, r2, r4
 8000e32:	4323      	orrs	r3, r4
 8000e34:	f88d 3020 	strb.w	r3, [sp, #32]
 8000e38:	f89d 3020 	ldrb.w	r3, [sp, #32]
 8000e3c:	f88a 3000 	strb.w	r3, [sl]
 8000e40:	e786      	b.n	8000d50 <canardDecodeScalar+0x30>
 8000e42:	46a8      	mov	r8, r5
 8000e44:	2700      	movs	r7, #0
 8000e46:	e7a9      	b.n	8000d9c <canardDecodeScalar+0x7c>
 8000e48:	9b05      	ldr	r3, [sp, #20]
 8000e4a:	2be0      	cmp	r3, #224	; 0xe0
 8000e4c:	bf28      	it	cs
 8000e4e:	23e0      	movcs	r3, #224	; 0xe0
 8000e50:	9307      	str	r3, [sp, #28]
 8000e52:	440b      	add	r3, r1
 8000e54:	42b3      	cmp	r3, r6
 8000e56:	9306      	str	r3, [sp, #24]
 8000e58:	d915      	bls.n	8000e86 <canardDecodeScalar+0x166>
 8000e5a:	eba3 0906 	sub.w	r9, r3, r6
 8000e5e:	45c8      	cmp	r8, r9
 8000e60:	9803      	ldr	r0, [sp, #12]
 8000e62:	9700      	str	r7, [sp, #0]
 8000e64:	bf2c      	ite	cs
 8000e66:	fa5f f989 	uxtbcs.w	r9, r9
 8000e6a:	46c1      	movcc	r9, r8
 8000e6c:	1a71      	subs	r1, r6, r1
 8000e6e:	ab08      	add	r3, sp, #32
 8000e70:	464a      	mov	r2, r9
 8000e72:	3004      	adds	r0, #4
 8000e74:	f7ff fac0 	bl	80003f8 <copyBitArray>
 8000e78:	444f      	add	r7, r9
 8000e7a:	eba8 0809 	sub.w	r8, r8, r9
 8000e7e:	444e      	add	r6, r9
 8000e80:	b2ff      	uxtb	r7, r7
 8000e82:	fa5f f888 	uxtb.w	r8, r8
 8000e86:	9b05      	ldr	r3, [sp, #20]
 8000e88:	9a07      	ldr	r2, [sp, #28]
 8000e8a:	9906      	ldr	r1, [sp, #24]
 8000e8c:	1a9b      	subs	r3, r3, r2
 8000e8e:	9305      	str	r3, [sp, #20]
 8000e90:	9b03      	ldr	r3, [sp, #12]
 8000e92:	681b      	ldr	r3, [r3, #0]
 8000e94:	9303      	str	r3, [sp, #12]
 8000e96:	e78c      	b.n	8000db2 <canardDecodeScalar+0x92>
 8000e98:	9300      	str	r3, [sp, #0]
 8000e9a:	462a      	mov	r2, r5
 8000e9c:	ab08      	add	r3, sp, #32
 8000e9e:	6880      	ldr	r0, [r0, #8]
 8000ea0:	e796      	b.n	8000dd0 <canardDecodeScalar+0xb0>
 8000ea2:	2c10      	cmp	r4, #16
 8000ea4:	d812      	bhi.n	8000ecc <canardDecodeScalar+0x1ac>
 8000ea6:	f8bd 3020 	ldrh.w	r3, [sp, #32]
 8000eaa:	1e62      	subs	r2, r4, #1
 8000eac:	fa23 f202 	lsr.w	r2, r3, r2
 8000eb0:	07d2      	lsls	r2, r2, #31
 8000eb2:	d506      	bpl.n	8000ec2 <canardDecodeScalar+0x1a2>
 8000eb4:	f04f 32ff 	mov.w	r2, #4294967295	; 0xffffffff
 8000eb8:	fa02 f404 	lsl.w	r4, r2, r4
 8000ebc:	4323      	orrs	r3, r4
 8000ebe:	f8ad 3020 	strh.w	r3, [sp, #32]
 8000ec2:	f8bd 3020 	ldrh.w	r3, [sp, #32]
 8000ec6:	f8aa 3000 	strh.w	r3, [sl]
 8000eca:	e741      	b.n	8000d50 <canardDecodeScalar+0x30>
 8000ecc:	2c20      	cmp	r4, #32
 8000ece:	d80f      	bhi.n	8000ef0 <canardDecodeScalar+0x1d0>
 8000ed0:	9a08      	ldr	r2, [sp, #32]
 8000ed2:	1e63      	subs	r3, r4, #1
 8000ed4:	fa22 f303 	lsr.w	r3, r2, r3
 8000ed8:	07db      	lsls	r3, r3, #31
 8000eda:	d505      	bpl.n	8000ee8 <canardDecodeScalar+0x1c8>
 8000edc:	f04f 33ff 	mov.w	r3, #4294967295	; 0xffffffff
 8000ee0:	fa03 f404 	lsl.w	r4, r3, r4
 8000ee4:	4314      	orrs	r4, r2
 8000ee6:	9408      	str	r4, [sp, #32]
 8000ee8:	9b08      	ldr	r3, [sp, #32]
 8000eea:	f8ca 3000 	str.w	r3, [sl]
 8000eee:	e72f      	b.n	8000d50 <canardDecodeScalar+0x30>
 8000ef0:	2c40      	cmp	r4, #64	; 0x40
 8000ef2:	d033      	beq.n	8000f5c <canardDecodeScalar+0x23c>
 8000ef4:	e9dd 5108 	ldrd	r5, r1, [sp, #32]
 8000ef8:	1e63      	subs	r3, r4, #1
 8000efa:	f1c3 0620 	rsb	r6, r3, #32
 8000efe:	fa01 f606 	lsl.w	r6, r1, r6
 8000f02:	f1a4 0221 	sub.w	r2, r4, #33	; 0x21
 8000f06:	fa25 f303 	lsr.w	r3, r5, r3
 8000f0a:	4333      	orrs	r3, r6
 8000f0c:	fa21 f202 	lsr.w	r2, r1, r2
 8000f10:	4313      	orrs	r3, r2
 8000f12:	f04f 0c01 	mov.w	ip, #1
 8000f16:	f04f 0e00 	mov.w	lr, #0
 8000f1a:	ea03 060c 	and.w	r6, r3, ip
 8000f1e:	4677      	mov	r7, lr
 8000f20:	ea56 0307 	orrs.w	r3, r6, r7
 8000f24:	d012      	beq.n	8000f4c <canardDecodeScalar+0x22c>
 8000f26:	f1a4 0720 	sub.w	r7, r4, #32
 8000f2a:	f1c4 0620 	rsb	r6, r4, #32
 8000f2e:	fa0c f307 	lsl.w	r3, ip, r7
 8000f32:	fa2c f606 	lsr.w	r6, ip, r6
 8000f36:	fa0c f204 	lsl.w	r2, ip, r4
 8000f3a:	4252      	negs	r2, r2
 8000f3c:	ea43 0306 	orr.w	r3, r3, r6
 8000f40:	eb63 0343 	sbc.w	r3, r3, r3, lsl #1
 8000f44:	4315      	orrs	r5, r2
 8000f46:	4319      	orrs	r1, r3
 8000f48:	e9cd 5108 	strd	r5, r1, [sp, #32]
 8000f4c:	e9dd 2308 	ldrd	r2, r3, [sp, #32]
 8000f50:	e9ca 2300 	strd	r2, r3, [sl]
 8000f54:	e6fc      	b.n	8000d50 <canardDecodeScalar+0x30>
 8000f56:	f06f 0001 	mvn.w	r0, #1
 8000f5a:	e6f9      	b.n	8000d50 <canardDecodeScalar+0x30>
 8000f5c:	f06f 0008 	mvn.w	r0, #8
 8000f60:	e6f6      	b.n	8000d50 <canardDecodeScalar+0x30>
 8000f62:	2c08      	cmp	r4, #8
 8000f64:	f67f af68 	bls.w	8000e38 <canardDecodeScalar+0x118>
 8000f68:	2c10      	cmp	r4, #16
 8000f6a:	d9aa      	bls.n	8000ec2 <canardDecodeScalar+0x1a2>
 8000f6c:	2c20      	cmp	r4, #32
 8000f6e:	d8ed      	bhi.n	8000f4c <canardDecodeScalar+0x22c>
 8000f70:	e7ba      	b.n	8000ee8 <canardDecodeScalar+0x1c8>
 8000f72:	9b04      	ldr	r3, [sp, #16]
 8000f74:	2b00      	cmp	r3, #0
 8000f76:	f43f af5f 	beq.w	8000e38 <canardDecodeScalar+0x118>
 8000f7a:	2301      	movs	r3, #1
 8000f7c:	e748      	b.n	8000e10 <canardDecodeScalar+0xf0>
 8000f7e:	9b04      	ldr	r3, [sp, #16]
 8000f80:	2b00      	cmp	r3, #0
 8000f82:	d09e      	beq.n	8000ec2 <canardDecodeScalar+0x1a2>
 8000f84:	2302      	movs	r3, #2
 8000f86:	e743      	b.n	8000e10 <canardDecodeScalar+0xf0>
 8000f88:	9b04      	ldr	r3, [sp, #16]
 8000f8a:	2b00      	cmp	r3, #0
 8000f8c:	d0ac      	beq.n	8000ee8 <canardDecodeScalar+0x1c8>
 8000f8e:	2304      	movs	r3, #4
 8000f90:	e73e      	b.n	8000e10 <canardDecodeScalar+0xf0>
 8000f92:	0000      	movs	r0, r0
 8000f94:	0000      	movs	r0, r0
	...

08000f98 <cocobot_loader_read>:
 8000f98:	b570      	push	{r4, r5, r6, lr}
 8000f9a:	4b2d      	ldr	r3, [pc, #180]	; (8001050 <cocobot_loader_read+0xb8>)
 8000f9c:	e9d3 6500 	ldrd	r6, r5, [r3]
 8000fa0:	b08a      	sub	sp, #40	; 0x28
 8000fa2:	2300      	movs	r3, #0
 8000fa4:	20ce      	movs	r0, #206	; 0xce
 8000fa6:	e9cd 6506 	strd	r6, r5, [sp, #24]
 8000faa:	f88d 3020 	strb.w	r3, [sp, #32]
 8000fae:	9309      	str	r3, [sp, #36]	; 0x24
 8000fb0:	f001 fc4c 	bl	800284c <malloc>
 8000fb4:	4604      	mov	r4, r0
 8000fb6:	2800      	cmp	r0, #0
 8000fb8:	d042      	beq.n	8001040 <cocobot_loader_read+0xa8>
 8000fba:	21ff      	movs	r1, #255	; 0xff
 8000fbc:	42a9      	cmp	r1, r5
 8000fbe:	f04f 30ff 	mov.w	r0, #4294967295	; 0xffffffff
 8000fc2:	bf08      	it	eq
 8000fc4:	42b0      	cmpeq	r0, r6
 8000fc6:	462b      	mov	r3, r5
 8000fc8:	4632      	mov	r2, r6
 8000fca:	bf3c      	itt	cc
 8000fcc:	460b      	movcc	r3, r1
 8000fce:	4602      	movcc	r2, r0
 8000fd0:	e9cd 2306 	strd	r2, r3, [sp, #24]
 8000fd4:	2100      	movs	r1, #0
 8000fd6:	ab06      	add	r3, sp, #24
 8000fd8:	2228      	movs	r2, #40	; 0x28
 8000fda:	4620      	mov	r0, r4
 8000fdc:	f7ff fdc2 	bl	8000b64 <canardEncodeScalar>
 8000fe0:	ab08      	add	r3, sp, #32
 8000fe2:	2208      	movs	r2, #8
 8000fe4:	2128      	movs	r1, #40	; 0x28
 8000fe6:	4620      	mov	r0, r4
 8000fe8:	f7ff fdbc 	bl	8000b64 <canardEncodeScalar>
 8000fec:	2500      	movs	r5, #0
 8000fee:	f89d 2020 	ldrb.w	r2, [sp, #32]
 8000ff2:	00eb      	lsls	r3, r5, #3
 8000ff4:	4295      	cmp	r5, r2
 8000ff6:	f103 0130 	add.w	r1, r3, #48	; 0x30
 8000ffa:	d319      	bcc.n	8001030 <cocobot_loader_read+0x98>
 8000ffc:	3337      	adds	r3, #55	; 0x37
 8000ffe:	f3c3 03cf 	ubfx	r3, r3, #3, #16
 8001002:	e9cd 4304 	strd	r4, r3, [sp, #16]
 8001006:	2201      	movs	r2, #1
 8001008:	2310      	movs	r3, #16
 800100a:	e9cd 3202 	strd	r3, r2, [sp, #8]
 800100e:	4b11      	ldr	r3, [pc, #68]	; (8001054 <cocobot_loader_read+0xbc>)
 8001010:	9301      	str	r3, [sp, #4]
 8001012:	4911      	ldr	r1, [pc, #68]	; (8001058 <cocobot_loader_read+0xc0>)
 8001014:	2330      	movs	r3, #48	; 0x30
 8001016:	9300      	str	r3, [sp, #0]
 8001018:	7808      	ldrb	r0, [r1, #0]
 800101a:	a30b      	add	r3, pc, #44	; (adr r3, 8001048 <cocobot_loader_read+0xb0>)
 800101c:	e9d3 2300 	ldrd	r2, r3, [r3]
 8001020:	f7ff fd38 	bl	8000a94 <cocobot_com_request_or_respond>
 8001024:	4620      	mov	r0, r4
 8001026:	b00a      	add	sp, #40	; 0x28
 8001028:	e8bd 4070 	ldmia.w	sp!, {r4, r5, r6, lr}
 800102c:	f001 bc16 	b.w	800285c <free>
 8001030:	9b09      	ldr	r3, [sp, #36]	; 0x24
 8001032:	2208      	movs	r2, #8
 8001034:	442b      	add	r3, r5
 8001036:	4620      	mov	r0, r4
 8001038:	f7ff fd94 	bl	8000b64 <canardEncodeScalar>
 800103c:	3501      	adds	r5, #1
 800103e:	e7d6      	b.n	8000fee <cocobot_loader_read+0x56>
 8001040:	b00a      	add	sp, #40	; 0x28
 8001042:	bd70      	pop	{r4, r5, r6, pc}
 8001044:	f3af 8000 	nop.w
 8001048:	9f33f678 	svcls	0x0033f678
 800104c:	8dcdca93 	vstrhi	s25, [sp, #588]	; 0x24c
 8001050:	20000620 	andcs	r0, r0, r0, lsr #12
 8001054:	20000628 	andcs	r0, r0, r8, lsr #12
 8001058:	20000629 	andcs	r0, r0, r9, lsr #12
 800105c:	00000000 	andeq	r0, r0, r0

08001060 <cocobot_com_on_transfer_received>:
 8001060:	e92d 4ff0 	stmdb	sp!, {r4, r5, r6, r7, r8, r9, sl, fp, lr}
 8001064:	7e0f      	ldrb	r7, [r1, #24]
 8001066:	2f01      	cmp	r7, #1
 8001068:	b0a5      	sub	sp, #148	; 0x94
 800106a:	4680      	mov	r8, r0
 800106c:	460c      	mov	r4, r1
 800106e:	f040 82dd 	bne.w	800162c <cocobot_com_on_transfer_received+0x5cc>
 8001072:	8acd      	ldrh	r5, [r1, #22]
 8001074:	2d01      	cmp	r5, #1
 8001076:	f040 80c3 	bne.w	8001200 <cocobot_com_on_transfer_received+0x1a0>
 800107a:	f7ff f9f7 	bl	800046c <canardReleaseRxTransferPayload>
 800107e:	49b8      	ldr	r1, [pc, #736]	; (8001360 <cocobot_com_on_transfer_received+0x300>)
 8001080:	4ab8      	ldr	r2, [pc, #736]	; (8001364 <cocobot_com_on_transfer_received+0x304>)
 8001082:	2300      	movs	r3, #0
 8001084:	e9d1 0100 	ldrd	r0, r1, [r1]
 8001088:	f001 fc10 	bl	80028ac <__aeabi_uldivmod>
 800108c:	4bb6      	ldr	r3, [pc, #728]	; (8001368 <cocobot_com_on_transfer_received+0x308>)
 800108e:	9012      	str	r0, [sp, #72]	; 0x48
 8001090:	781b      	ldrb	r3, [r3, #0]
 8001092:	f88d 304c 	strb.w	r3, [sp, #76]	; 0x4c
 8001096:	4bb5      	ldr	r3, [pc, #724]	; (800136c <cocobot_com_on_transfer_received+0x30c>)
 8001098:	4ab5      	ldr	r2, [pc, #724]	; (8001370 <cocobot_com_on_transfer_received+0x310>)
 800109a:	781b      	ldrb	r3, [r3, #0]
 800109c:	f88d 304d 	strb.w	r3, [sp, #77]	; 0x4d
 80010a0:	2300      	movs	r3, #0
 80010a2:	2100      	movs	r1, #0
 80010a4:	f88d 304e 	strb.w	r3, [sp, #78]	; 0x4e
 80010a8:	f8ad 3050 	strh.w	r3, [sp, #80]	; 0x50
 80010ac:	2000      	movs	r0, #0
 80010ae:	2313      	movs	r3, #19
 80010b0:	f8ad 3058 	strh.w	r3, [sp, #88]	; 0x58
 80010b4:	e9cd 0118 	strd	r0, r1, [sp, #96]	; 0x60
 80010b8:	f8ad 3068 	strh.w	r3, [sp, #104]	; 0x68
 80010bc:	f10d 086a 	add.w	r8, sp, #106	; 0x6a
 80010c0:	4bac      	ldr	r3, [pc, #688]	; (8001374 <cocobot_com_on_transfer_received+0x314>)
 80010c2:	49ad      	ldr	r1, [pc, #692]	; (8001378 <cocobot_com_on_transfer_received+0x318>)
 80010c4:	9217      	str	r2, [sp, #92]	; 0x5c
 80010c6:	f88d 505a 	strb.w	r5, [sp, #90]	; 0x5a
 80010ca:	4642      	mov	r2, r8
 80010cc:	f813 0b01 	ldrb.w	r0, [r3], #1
 80010d0:	f802 0b01 	strb.w	r0, [r2], #1
 80010d4:	428b      	cmp	r3, r1
 80010d6:	d1f9      	bne.n	80010cc <cocobot_com_on_transfer_received+0x6c>
 80010d8:	2300      	movs	r3, #0
 80010da:	f8ad 3076 	strh.w	r3, [sp, #118]	; 0x76
 80010de:	f8ad 3078 	strh.w	r3, [sp, #120]	; 0x78
 80010e2:	f88d 307c 	strb.w	r3, [sp, #124]	; 0x7c
 80010e6:	9320      	str	r3, [sp, #128]	; 0x80
 80010e8:	4ba4      	ldr	r3, [pc, #656]	; (800137c <cocobot_com_on_transfer_received+0x31c>)
 80010ea:	9322      	str	r3, [sp, #136]	; 0x88
 80010ec:	a812      	add	r0, sp, #72	; 0x48
 80010ee:	2311      	movs	r3, #17
 80010f0:	f88d 3084 	strb.w	r3, [sp, #132]	; 0x84
 80010f4:	f7ff fd6c 	bl	8000bd0 <uavcan_protocol_NodeStatus_encode_internal.constprop.51>
 80010f8:	ab16      	add	r3, sp, #88	; 0x58
 80010fa:	4605      	mov	r5, r0
 80010fc:	4601      	mov	r1, r0
 80010fe:	2208      	movs	r2, #8
 8001100:	489f      	ldr	r0, [pc, #636]	; (8001380 <cocobot_com_on_transfer_received+0x320>)
 8001102:	4f9f      	ldr	r7, [pc, #636]	; (8001380 <cocobot_com_on_transfer_received+0x320>)
 8001104:	f7ff fd2e 	bl	8000b64 <canardEncodeScalar>
 8001108:	2208      	movs	r2, #8
 800110a:	18a9      	adds	r1, r5, r2
 800110c:	f10d 0359 	add.w	r3, sp, #89	; 0x59
 8001110:	489b      	ldr	r0, [pc, #620]	; (8001380 <cocobot_com_on_transfer_received+0x320>)
 8001112:	f7ff fd27 	bl	8000b64 <canardEncodeScalar>
 8001116:	f10d 035a 	add.w	r3, sp, #90	; 0x5a
 800111a:	2208      	movs	r2, #8
 800111c:	f105 0110 	add.w	r1, r5, #16
 8001120:	4897      	ldr	r0, [pc, #604]	; (8001380 <cocobot_com_on_transfer_received+0x320>)
 8001122:	f7ff fd1f 	bl	8000b64 <canardEncodeScalar>
 8001126:	ab17      	add	r3, sp, #92	; 0x5c
 8001128:	2220      	movs	r2, #32
 800112a:	f105 0118 	add.w	r1, r5, #24
 800112e:	4894      	ldr	r0, [pc, #592]	; (8001380 <cocobot_com_on_transfer_received+0x320>)
 8001130:	f7ff fd18 	bl	8000b64 <canardEncodeScalar>
 8001134:	ab18      	add	r3, sp, #96	; 0x60
 8001136:	2240      	movs	r2, #64	; 0x40
 8001138:	f105 0138 	add.w	r1, r5, #56	; 0x38
 800113c:	4890      	ldr	r0, [pc, #576]	; (8001380 <cocobot_com_on_transfer_received+0x320>)
 800113e:	f7ff fd11 	bl	8000b64 <canardEncodeScalar>
 8001142:	ab1a      	add	r3, sp, #104	; 0x68
 8001144:	2208      	movs	r2, #8
 8001146:	f105 0178 	add.w	r1, r5, #120	; 0x78
 800114a:	488d      	ldr	r0, [pc, #564]	; (8001380 <cocobot_com_on_transfer_received+0x320>)
 800114c:	f7ff fd0a 	bl	8000b64 <canardEncodeScalar>
 8001150:	f10d 0369 	add.w	r3, sp, #105	; 0x69
 8001154:	2208      	movs	r2, #8
 8001156:	f105 0180 	add.w	r1, r5, #128	; 0x80
 800115a:	4889      	ldr	r0, [pc, #548]	; (8001380 <cocobot_com_on_transfer_received+0x320>)
 800115c:	f7ff fd02 	bl	8000b64 <canardEncodeScalar>
 8001160:	f105 0688 	add.w	r6, r5, #136	; 0x88
 8001164:	f505 7984 	add.w	r9, r5, #264	; 0x108
 8001168:	4643      	mov	r3, r8
 800116a:	4631      	mov	r1, r6
 800116c:	2208      	movs	r2, #8
 800116e:	4638      	mov	r0, r7
 8001170:	3608      	adds	r6, #8
 8001172:	f7ff fcf7 	bl	8000b64 <canardEncodeScalar>
 8001176:	454e      	cmp	r6, r9
 8001178:	f108 0801 	add.w	r8, r8, #1
 800117c:	d1f4      	bne.n	8001168 <cocobot_com_on_transfer_received+0x108>
 800117e:	4631      	mov	r1, r6
 8001180:	ab1f      	add	r3, sp, #124	; 0x7c
 8001182:	2208      	movs	r2, #8
 8001184:	487e      	ldr	r0, [pc, #504]	; (8001380 <cocobot_com_on_transfer_received+0x320>)
 8001186:	f8df 81f8 	ldr.w	r8, [pc, #504]	; 8001380 <cocobot_com_on_transfer_received+0x320>
 800118a:	f7ff fceb 	bl	8000b64 <canardEncodeScalar>
 800118e:	f505 7588 	add.w	r5, r5, #272	; 0x110
 8001192:	2600      	movs	r6, #0
 8001194:	f89d 307c 	ldrb.w	r3, [sp, #124]	; 0x7c
 8001198:	429e      	cmp	r6, r3
 800119a:	d31f      	bcc.n	80011dc <cocobot_com_on_transfer_received+0x17c>
 800119c:	f8df 81e0 	ldr.w	r8, [pc, #480]	; 8001380 <cocobot_com_on_transfer_received+0x320>
 80011a0:	2600      	movs	r6, #0
 80011a2:	f89d 3084 	ldrb.w	r3, [sp, #132]	; 0x84
 80011a6:	429e      	cmp	r6, r3
 80011a8:	eb05 01c6 	add.w	r1, r5, r6, lsl #3
 80011ac:	d320      	bcc.n	80011f0 <cocobot_com_on_transfer_received+0x190>
 80011ae:	3107      	adds	r1, #7
 80011b0:	f3c1 01cf 	ubfx	r1, r1, #3, #16
 80011b4:	e9cd 7104 	strd	r7, r1, [sp, #16]
 80011b8:	2300      	movs	r3, #0
 80011ba:	9303      	str	r3, [sp, #12]
 80011bc:	7ea3      	ldrb	r3, [r4, #26]
 80011be:	9302      	str	r3, [sp, #8]
 80011c0:	f104 0319 	add.w	r3, r4, #25
 80011c4:	9301      	str	r3, [sp, #4]
 80011c6:	2301      	movs	r3, #1
 80011c8:	9300      	str	r3, [sp, #0]
 80011ca:	7ee0      	ldrb	r0, [r4, #27]
 80011cc:	a35c      	add	r3, pc, #368	; (adr r3, 8001340 <cocobot_com_on_transfer_received+0x2e0>)
 80011ce:	e9d3 2300 	ldrd	r2, r3, [r3]
 80011d2:	f7ff fc5f 	bl	8000a94 <cocobot_com_request_or_respond>
 80011d6:	b025      	add	sp, #148	; 0x94
 80011d8:	e8bd 8ff0 	ldmia.w	sp!, {r4, r5, r6, r7, r8, r9, sl, fp, pc}
 80011dc:	9b20      	ldr	r3, [sp, #128]	; 0x80
 80011de:	4629      	mov	r1, r5
 80011e0:	4433      	add	r3, r6
 80011e2:	2208      	movs	r2, #8
 80011e4:	4640      	mov	r0, r8
 80011e6:	f7ff fcbd 	bl	8000b64 <canardEncodeScalar>
 80011ea:	3508      	adds	r5, #8
 80011ec:	3601      	adds	r6, #1
 80011ee:	e7d1      	b.n	8001194 <cocobot_com_on_transfer_received+0x134>
 80011f0:	9b22      	ldr	r3, [sp, #136]	; 0x88
 80011f2:	2208      	movs	r2, #8
 80011f4:	4433      	add	r3, r6
 80011f6:	4640      	mov	r0, r8
 80011f8:	f7ff fcb4 	bl	8000b64 <canardEncodeScalar>
 80011fc:	3601      	adds	r6, #1
 80011fe:	e7d0      	b.n	80011a2 <cocobot_com_on_transfer_received+0x142>
 8001200:	2d05      	cmp	r5, #5
 8001202:	d138      	bne.n	8001276 <cocobot_com_on_transfer_received+0x216>
 8001204:	2500      	movs	r5, #0
 8001206:	ab08      	add	r3, sp, #32
 8001208:	9300      	str	r3, [sp, #0]
 800120a:	2228      	movs	r2, #40	; 0x28
 800120c:	462b      	mov	r3, r5
 800120e:	4629      	mov	r1, r5
 8001210:	4620      	mov	r0, r4
 8001212:	e9cd 5508 	strd	r5, r5, [sp, #32]
 8001216:	f7ff fd83 	bl	8000d20 <canardDecodeScalar>
 800121a:	2828      	cmp	r0, #40	; 0x28
 800121c:	d108      	bne.n	8001230 <cocobot_com_on_transfer_received+0x1d0>
 800121e:	e9dd 2308 	ldrd	r2, r3, [sp, #32]
 8001222:	a149      	add	r1, pc, #292	; (adr r1, 8001348 <cocobot_com_on_transfer_received+0x2e8>)
 8001224:	e9d1 0100 	ldrd	r0, r1, [r1]
 8001228:	428b      	cmp	r3, r1
 800122a:	bf04      	itt	eq
 800122c:	4282      	cmpeq	r2, r0
 800122e:	2501      	moveq	r5, #1
 8001230:	4e53      	ldr	r6, [pc, #332]	; (8001380 <cocobot_com_on_transfer_received+0x320>)
 8001232:	4621      	mov	r1, r4
 8001234:	4640      	mov	r0, r8
 8001236:	f7ff f919 	bl	800046c <canardReleaseRxTransferPayload>
 800123a:	ab07      	add	r3, sp, #28
 800123c:	2201      	movs	r2, #1
 800123e:	4630      	mov	r0, r6
 8001240:	2100      	movs	r1, #0
 8001242:	f88d 501c 	strb.w	r5, [sp, #28]
 8001246:	f7ff fc8d 	bl	8000b64 <canardEncodeScalar>
 800124a:	2301      	movs	r3, #1
 800124c:	e9cd 6304 	strd	r6, r3, [sp, #16]
 8001250:	2300      	movs	r3, #0
 8001252:	9303      	str	r3, [sp, #12]
 8001254:	7ea3      	ldrb	r3, [r4, #26]
 8001256:	9302      	str	r3, [sp, #8]
 8001258:	f104 0319 	add.w	r3, r4, #25
 800125c:	9301      	str	r3, [sp, #4]
 800125e:	2305      	movs	r3, #5
 8001260:	9300      	str	r3, [sp, #0]
 8001262:	7ee0      	ldrb	r0, [r4, #27]
 8001264:	a33a      	add	r3, pc, #232	; (adr r3, 8001350 <cocobot_com_on_transfer_received+0x2f0>)
 8001266:	e9d3 2300 	ldrd	r2, r3, [r3]
 800126a:	f7ff fc13 	bl	8000a94 <cocobot_com_request_or_respond>
 800126e:	2d00      	cmp	r5, #0
 8001270:	d0b1      	beq.n	80011d6 <cocobot_com_on_transfer_received+0x176>
 8001272:	f7ff f90b 	bl	800048c <NVIC_SystemReset>
 8001276:	2d0b      	cmp	r5, #11
 8001278:	f040 8155 	bne.w	8001526 <cocobot_com_on_transfer_received+0x4c6>
 800127c:	2200      	movs	r2, #0
 800127e:	4615      	mov	r5, r2
 8001280:	ab0a      	add	r3, sp, #40	; 0x28
 8001282:	f88d 2048 	strb.w	r2, [sp, #72]	; 0x48
 8001286:	f88d 2058 	strb.w	r2, [sp, #88]	; 0x58
 800128a:	f88d 2068 	strb.w	r2, [sp, #104]	; 0x68
 800128e:	f88d 2078 	strb.w	r2, [sp, #120]	; 0x78
 8001292:	f88d 2088 	strb.w	r2, [sp, #136]	; 0x88
 8001296:	8a8e      	ldrh	r6, [r1, #20]
 8001298:	461a      	mov	r2, r3
 800129a:	4629      	mov	r1, r5
 800129c:	3501      	adds	r5, #1
 800129e:	2d20      	cmp	r5, #32
 80012a0:	f803 1b01 	strb.w	r1, [r3], #1
 80012a4:	d1fa      	bne.n	800129c <cocobot_com_on_transfer_received+0x23c>
 80012a6:	2300      	movs	r3, #0
 80012a8:	9200      	str	r2, [sp, #0]
 80012aa:	4619      	mov	r1, r3
 80012ac:	220d      	movs	r2, #13
 80012ae:	4620      	mov	r0, r4
 80012b0:	f7ff fd36 	bl	8000d20 <canardDecodeScalar>
 80012b4:	280d      	cmp	r0, #13
 80012b6:	4601      	mov	r1, r0
 80012b8:	d108      	bne.n	80012cc <cocobot_com_on_transfer_received+0x26c>
 80012ba:	ab0c      	add	r3, sp, #48	; 0x30
 80012bc:	9300      	str	r3, [sp, #0]
 80012be:	2203      	movs	r2, #3
 80012c0:	2300      	movs	r3, #0
 80012c2:	4620      	mov	r0, r4
 80012c4:	f7ff fd2c 	bl	8000d20 <canardDecodeScalar>
 80012c8:	2803      	cmp	r0, #3
 80012ca:	d05b      	beq.n	8001384 <cocobot_com_on_transfer_received+0x324>
 80012cc:	2700      	movs	r7, #0
 80012ce:	4640      	mov	r0, r8
 80012d0:	4621      	mov	r1, r4
 80012d2:	f7ff f8cb 	bl	800046c <canardReleaseRxTransferPayload>
 80012d6:	2105      	movs	r1, #5
 80012d8:	a812      	add	r0, sp, #72	; 0x48
 80012da:	f7ff fcb1 	bl	8000c40 <uavcan_protocol_param_Value_encode_internal.constprop.42>
 80012de:	1d41      	adds	r1, r0, #5
 80012e0:	a816      	add	r0, sp, #88	; 0x58
 80012e2:	f7ff fcad 	bl	8000c40 <uavcan_protocol_param_Value_encode_internal.constprop.42>
 80012e6:	1d81      	adds	r1, r0, #6
 80012e8:	a81a      	add	r0, sp, #104	; 0x68
 80012ea:	f7ff fcf5 	bl	8000cd8 <uavcan_protocol_param_NumericValue_encode_internal.constprop.38>
 80012ee:	1d81      	adds	r1, r0, #6
 80012f0:	a81e      	add	r0, sp, #120	; 0x78
 80012f2:	f7ff fcf1 	bl	8000cd8 <uavcan_protocol_param_NumericValue_encode_internal.constprop.38>
 80012f6:	f8df 8088 	ldr.w	r8, [pc, #136]	; 8001380 <cocobot_com_on_transfer_received+0x320>
 80012fa:	4606      	mov	r6, r0
 80012fc:	2500      	movs	r5, #0
 80012fe:	f89d 3088 	ldrb.w	r3, [sp, #136]	; 0x88
 8001302:	429d      	cmp	r5, r3
 8001304:	eb06 01c5 	add.w	r1, r6, r5, lsl #3
 8001308:	f0c0 8105 	bcc.w	8001516 <cocobot_com_on_transfer_received+0x4b6>
 800130c:	4b1c      	ldr	r3, [pc, #112]	; (8001380 <cocobot_com_on_transfer_received+0x320>)
 800130e:	9304      	str	r3, [sp, #16]
 8001310:	3107      	adds	r1, #7
 8001312:	2300      	movs	r3, #0
 8001314:	f3c1 01cf 	ubfx	r1, r1, #3, #16
 8001318:	9105      	str	r1, [sp, #20]
 800131a:	9303      	str	r3, [sp, #12]
 800131c:	7ea3      	ldrb	r3, [r4, #26]
 800131e:	9302      	str	r3, [sp, #8]
 8001320:	f104 0319 	add.w	r3, r4, #25
 8001324:	9301      	str	r3, [sp, #4]
 8001326:	230b      	movs	r3, #11
 8001328:	9300      	str	r3, [sp, #0]
 800132a:	7ee0      	ldrb	r0, [r4, #27]
 800132c:	a30a      	add	r3, pc, #40	; (adr r3, 8001358 <cocobot_com_on_transfer_received+0x2f8>)
 800132e:	e9d3 2300 	ldrd	r2, r3, [r3]
 8001332:	f7ff fbaf 	bl	8000a94 <cocobot_com_request_or_respond>
 8001336:	2f00      	cmp	r7, #0
 8001338:	f43f af4d 	beq.w	80011d6 <cocobot_com_on_transfer_received+0x176>
 800133c:	e799      	b.n	8001272 <cocobot_com_on_transfer_received+0x212>
 800133e:	bf00      	nop
 8001340:	21c46a9e 			; <UNDEFINED> instruction: 0x21c46a9e
 8001344:	ee468a81 	vmla.f32	s17, s13, s2
 8001348:	ce551b1e 	vmovgt.s8	r1, d5[0]
 800134c:	000000ac 	andeq	r0, r0, ip, lsr #1
 8001350:	4a3017f0 	bmi	8c07318 <__fini_array_end+0xc04734>
 8001354:	569e0539 			; <UNDEFINED> instruction: 0x569e0539
 8001358:	39d1a4d5 	ldmibcc	r1, {r0, r2, r4, r6, r7, sl, sp, pc}^
 800135c:	a7b622f9 			; <UNDEFINED> instruction: 0xa7b622f9
 8001360:	20000630 	andcs	r0, r0, r0, lsr r6
 8001364:	000f4240 	andeq	r4, pc, r0, asr #4
 8001368:	2000048c 	andcs	r0, r0, ip, lsl #9
 800136c:	20000000 	andcs	r0, r0, r0
 8001370:	9e9f6a53 			; <UNDEFINED> instruction: 0x9e9f6a53
 8001374:	1fff7a10 	svcne	0x00ff7a10
 8001378:	1fff7a1c 	svcne	0x00ff7a1c
 800137c:	08002bcc 	stmdaeq	r0, {r2, r3, r6, r7, r8, r9, fp, sp}
 8001380:	2000048d 	andcs	r0, r0, sp, lsl #9
 8001384:	f89d 3030 	ldrb.w	r3, [sp, #48]	; 0x30
 8001388:	2b00      	cmp	r3, #0
 800138a:	f000 80a6 	beq.w	80014da <cocobot_com_on_transfer_received+0x47a>
 800138e:	2b01      	cmp	r3, #1
 8001390:	d14f      	bne.n	8001432 <cocobot_com_on_transfer_received+0x3d2>
 8001392:	aa0e      	add	r2, sp, #56	; 0x38
 8001394:	9200      	str	r2, [sp, #0]
 8001396:	2110      	movs	r1, #16
 8001398:	2240      	movs	r2, #64	; 0x40
 800139a:	4620      	mov	r0, r4
 800139c:	f7ff fcc0 	bl	8000d20 <canardDecodeScalar>
 80013a0:	2840      	cmp	r0, #64	; 0x40
 80013a2:	d193      	bne.n	80012cc <cocobot_com_on_transfer_received+0x26c>
 80013a4:	f8df 9338 	ldr.w	r9, [pc, #824]	; 80016e0 <cocobot_com_on_transfer_received+0x680>
 80013a8:	2550      	movs	r5, #80	; 0x50
 80013aa:	2e00      	cmp	r6, #0
 80013ac:	f000 8099 	beq.w	80014e2 <cocobot_com_on_transfer_received+0x482>
 80013b0:	ebd5 06c6 	rsbs	r6, r5, r6, lsl #3
 80013b4:	bf48      	it	mi
 80013b6:	3607      	addmi	r6, #7
 80013b8:	10f6      	asrs	r6, r6, #3
 80013ba:	f88d 6040 	strb.w	r6, [sp, #64]	; 0x40
 80013be:	f8cd 9044 	str.w	r9, [sp, #68]	; 0x44
 80013c2:	2600      	movs	r6, #0
 80013c4:	f89d 3040 	ldrb.w	r3, [sp, #64]	; 0x40
 80013c8:	429e      	cmp	r6, r3
 80013ca:	eb09 0206 	add.w	r2, r9, r6
 80013ce:	f0c0 8095 	bcc.w	80014fc <cocobot_com_on_transfer_received+0x49c>
 80013d2:	49bf      	ldr	r1, [pc, #764]	; (80016d0 <cocobot_com_on_transfer_received+0x670>)
 80013d4:	9811      	ldr	r0, [sp, #68]	; 0x44
 80013d6:	f001 fa5f 	bl	8002898 <strcmp>
 80013da:	2800      	cmp	r0, #0
 80013dc:	f47f af76 	bne.w	80012cc <cocobot_com_on_transfer_received+0x26c>
 80013e0:	f89d 1038 	ldrb.w	r1, [sp, #56]	; 0x38
 80013e4:	b672      	cpsid	i
 80013e6:	4bbb      	ldr	r3, [pc, #748]	; (80016d4 <cocobot_com_on_transfer_received+0x674>)
 80013e8:	691a      	ldr	r2, [r3, #16]
 80013ea:	f042 4200 	orr.w	r2, r2, #2147483648	; 0x80000000
 80013ee:	611a      	str	r2, [r3, #16]
 80013f0:	4ab9      	ldr	r2, [pc, #740]	; (80016d8 <cocobot_com_on_transfer_received+0x678>)
 80013f2:	605a      	str	r2, [r3, #4]
 80013f4:	f102 3288 	add.w	r2, r2, #2290649224	; 0x88888888
 80013f8:	605a      	str	r2, [r3, #4]
 80013fa:	f240 2201 	movw	r2, #513	; 0x201
 80013fe:	611a      	str	r2, [r3, #16]
 8001400:	68da      	ldr	r2, [r3, #12]
 8001402:	03d0      	lsls	r0, r2, #15
 8001404:	d4fc      	bmi.n	8001400 <cocobot_com_on_transfer_received+0x3a0>
 8001406:	4ab5      	ldr	r2, [pc, #724]	; (80016dc <cocobot_com_on_transfer_received+0x67c>)
 8001408:	6011      	str	r1, [r2, #0]
 800140a:	68da      	ldr	r2, [r3, #12]
 800140c:	f412 3280 	ands.w	r2, r2, #65536	; 0x10000
 8001410:	d1fb      	bne.n	800140a <cocobot_com_on_transfer_received+0x3aa>
 8001412:	611a      	str	r2, [r3, #16]
 8001414:	b662      	cpsie	i
 8001416:	2301      	movs	r3, #1
 8001418:	f88d 3048 	strb.w	r3, [sp, #72]	; 0x48
 800141c:	e9dd 230e 	ldrd	r2, r3, [sp, #56]	; 0x38
 8001420:	e9cd 2314 	strd	r2, r3, [sp, #80]	; 0x50
 8001424:	f89d 3040 	ldrb.w	r3, [sp, #64]	; 0x40
 8001428:	f88d 3088 	strb.w	r3, [sp, #136]	; 0x88
 800142c:	9b11      	ldr	r3, [sp, #68]	; 0x44
 800142e:	9323      	str	r3, [sp, #140]	; 0x8c
 8001430:	e74d      	b.n	80012ce <cocobot_com_on_transfer_received+0x26e>
 8001432:	2b02      	cmp	r3, #2
 8001434:	d10e      	bne.n	8001454 <cocobot_com_on_transfer_received+0x3f4>
 8001436:	ab0e      	add	r3, sp, #56	; 0x38
 8001438:	9300      	str	r3, [sp, #0]
 800143a:	462a      	mov	r2, r5
 800143c:	2300      	movs	r3, #0
 800143e:	2110      	movs	r1, #16
 8001440:	4620      	mov	r0, r4
 8001442:	f7ff fc6d 	bl	8000d20 <canardDecodeScalar>
 8001446:	2820      	cmp	r0, #32
 8001448:	f47f af40 	bne.w	80012cc <cocobot_com_on_transfer_received+0x26c>
 800144c:	f8df 9290 	ldr.w	r9, [pc, #656]	; 80016e0 <cocobot_com_on_transfer_received+0x680>
 8001450:	2530      	movs	r5, #48	; 0x30
 8001452:	e7aa      	b.n	80013aa <cocobot_com_on_transfer_received+0x34a>
 8001454:	2b03      	cmp	r3, #3
 8001456:	d10e      	bne.n	8001476 <cocobot_com_on_transfer_received+0x416>
 8001458:	ab0e      	add	r3, sp, #56	; 0x38
 800145a:	9300      	str	r3, [sp, #0]
 800145c:	2208      	movs	r2, #8
 800145e:	2300      	movs	r3, #0
 8001460:	2110      	movs	r1, #16
 8001462:	4620      	mov	r0, r4
 8001464:	f7ff fc5c 	bl	8000d20 <canardDecodeScalar>
 8001468:	2808      	cmp	r0, #8
 800146a:	f47f af2f 	bne.w	80012cc <cocobot_com_on_transfer_received+0x26c>
 800146e:	f8df 9270 	ldr.w	r9, [pc, #624]	; 80016e0 <cocobot_com_on_transfer_received+0x680>
 8001472:	2518      	movs	r5, #24
 8001474:	e799      	b.n	80013aa <cocobot_com_on_transfer_received+0x34a>
 8001476:	2b04      	cmp	r3, #4
 8001478:	d12f      	bne.n	80014da <cocobot_com_on_transfer_received+0x47a>
 800147a:	b30e      	cbz	r6, 80014c0 <cocobot_com_on_transfer_received+0x460>
 800147c:	00f3      	lsls	r3, r6, #3
 800147e:	3b10      	subs	r3, #16
 8001480:	bf48      	it	mi
 8001482:	3307      	addmi	r3, #7
 8001484:	10db      	asrs	r3, r3, #3
 8001486:	f88d 3038 	strb.w	r3, [sp, #56]	; 0x38
 800148a:	2510      	movs	r5, #16
 800148c:	4b94      	ldr	r3, [pc, #592]	; (80016e0 <cocobot_com_on_transfer_received+0x680>)
 800148e:	930f      	str	r3, [sp, #60]	; 0x3c
 8001490:	f04f 0a00 	mov.w	sl, #0
 8001494:	469b      	mov	fp, r3
 8001496:	f89d 3038 	ldrb.w	r3, [sp, #56]	; 0x38
 800149a:	459a      	cmp	sl, r3
 800149c:	eb0b 090a 	add.w	r9, fp, sl
 80014a0:	d283      	bcs.n	80013aa <cocobot_com_on_transfer_received+0x34a>
 80014a2:	f8cd 9000 	str.w	r9, [sp]
 80014a6:	2300      	movs	r3, #0
 80014a8:	2208      	movs	r2, #8
 80014aa:	4629      	mov	r1, r5
 80014ac:	4620      	mov	r0, r4
 80014ae:	f7ff fc37 	bl	8000d20 <canardDecodeScalar>
 80014b2:	2808      	cmp	r0, #8
 80014b4:	f47f af0a 	bne.w	80012cc <cocobot_com_on_transfer_received+0x26c>
 80014b8:	3508      	adds	r5, #8
 80014ba:	f10a 0a01 	add.w	sl, sl, #1
 80014be:	e7ea      	b.n	8001496 <cocobot_com_on_transfer_received+0x436>
 80014c0:	ab0e      	add	r3, sp, #56	; 0x38
 80014c2:	9300      	str	r3, [sp, #0]
 80014c4:	2208      	movs	r2, #8
 80014c6:	4633      	mov	r3, r6
 80014c8:	2110      	movs	r1, #16
 80014ca:	4620      	mov	r0, r4
 80014cc:	f7ff fc28 	bl	8000d20 <canardDecodeScalar>
 80014d0:	2808      	cmp	r0, #8
 80014d2:	f47f aefb 	bne.w	80012cc <cocobot_com_on_transfer_received+0x26c>
 80014d6:	2518      	movs	r5, #24
 80014d8:	e7d8      	b.n	800148c <cocobot_com_on_transfer_received+0x42c>
 80014da:	f8df 9204 	ldr.w	r9, [pc, #516]	; 80016e0 <cocobot_com_on_transfer_received+0x680>
 80014de:	2510      	movs	r5, #16
 80014e0:	e763      	b.n	80013aa <cocobot_com_on_transfer_received+0x34a>
 80014e2:	ab10      	add	r3, sp, #64	; 0x40
 80014e4:	9300      	str	r3, [sp, #0]
 80014e6:	2207      	movs	r2, #7
 80014e8:	4633      	mov	r3, r6
 80014ea:	4629      	mov	r1, r5
 80014ec:	4620      	mov	r0, r4
 80014ee:	f7ff fc17 	bl	8000d20 <canardDecodeScalar>
 80014f2:	2807      	cmp	r0, #7
 80014f4:	f47f aeea 	bne.w	80012cc <cocobot_com_on_transfer_received+0x26c>
 80014f8:	3507      	adds	r5, #7
 80014fa:	e760      	b.n	80013be <cocobot_com_on_transfer_received+0x35e>
 80014fc:	9200      	str	r2, [sp, #0]
 80014fe:	2300      	movs	r3, #0
 8001500:	2208      	movs	r2, #8
 8001502:	eb05 01c6 	add.w	r1, r5, r6, lsl #3
 8001506:	4620      	mov	r0, r4
 8001508:	f7ff fc0a 	bl	8000d20 <canardDecodeScalar>
 800150c:	2808      	cmp	r0, #8
 800150e:	f47f aedd 	bne.w	80012cc <cocobot_com_on_transfer_received+0x26c>
 8001512:	3601      	adds	r6, #1
 8001514:	e756      	b.n	80013c4 <cocobot_com_on_transfer_received+0x364>
 8001516:	9b23      	ldr	r3, [sp, #140]	; 0x8c
 8001518:	2208      	movs	r2, #8
 800151a:	442b      	add	r3, r5
 800151c:	4640      	mov	r0, r8
 800151e:	f7ff fb21 	bl	8000b64 <canardEncodeScalar>
 8001522:	3501      	adds	r5, #1
 8001524:	e6eb      	b.n	80012fe <cocobot_com_on_transfer_received+0x29e>
 8001526:	2d28      	cmp	r5, #40	; 0x28
 8001528:	f040 814d 	bne.w	80017c6 <cocobot_com_on_transfer_received+0x766>
 800152c:	4d6d      	ldr	r5, [pc, #436]	; (80016e4 <cocobot_com_on_transfer_received+0x684>)
 800152e:	2300      	movs	r3, #0
 8001530:	f88d 304c 	strb.w	r3, [sp, #76]	; 0x4c
 8001534:	9314      	str	r3, [sp, #80]	; 0x50
 8001536:	782b      	ldrb	r3, [r5, #0]
 8001538:	2b00      	cmp	r3, #0
 800153a:	d16d      	bne.n	8001618 <cocobot_com_on_transfer_received+0x5b8>
 800153c:	702f      	strb	r7, [r5, #0]
 800153e:	4621      	mov	r1, r4
 8001540:	4869      	ldr	r0, [pc, #420]	; (80016e8 <cocobot_com_on_transfer_received+0x688>)
 8001542:	f88d 3048 	strb.w	r3, [sp, #72]	; 0x48
 8001546:	f7fe ff91 	bl	800046c <canardReleaseRxTransferPayload>
 800154a:	2081      	movs	r0, #129	; 0x81
 800154c:	f001 f97e 	bl	800284c <malloc>
 8001550:	4607      	mov	r7, r0
 8001552:	b310      	cbz	r0, 800159a <cocobot_com_on_transfer_received+0x53a>
 8001554:	ab12      	add	r3, sp, #72	; 0x48
 8001556:	2208      	movs	r2, #8
 8001558:	2100      	movs	r1, #0
 800155a:	f7ff fb03 	bl	8000b64 <canardEncodeScalar>
 800155e:	2300      	movs	r3, #0
 8001560:	f89d 204c 	ldrb.w	r2, [sp, #76]	; 0x4c
 8001564:	1c5e      	adds	r6, r3, #1
 8001566:	4293      	cmp	r3, r2
 8001568:	ea4f 01c6 	mov.w	r1, r6, lsl #3
 800156c:	d356      	bcc.n	800161c <cocobot_com_on_transfer_received+0x5bc>
 800156e:	f3c1 01cf 	ubfx	r1, r1, #3, #16
 8001572:	e9cd 7104 	strd	r7, r1, [sp, #16]
 8001576:	2300      	movs	r3, #0
 8001578:	9303      	str	r3, [sp, #12]
 800157a:	7ea3      	ldrb	r3, [r4, #26]
 800157c:	9302      	str	r3, [sp, #8]
 800157e:	f104 0319 	add.w	r3, r4, #25
 8001582:	9301      	str	r3, [sp, #4]
 8001584:	2328      	movs	r3, #40	; 0x28
 8001586:	9300      	str	r3, [sp, #0]
 8001588:	7ee0      	ldrb	r0, [r4, #27]
 800158a:	a34f      	add	r3, pc, #316	; (adr r3, 80016c8 <cocobot_com_on_transfer_received+0x668>)
 800158c:	e9d3 2300 	ldrd	r2, r3, [r3]
 8001590:	f7ff fa80 	bl	8000a94 <cocobot_com_request_or_respond>
 8001594:	4638      	mov	r0, r7
 8001596:	f001 f961 	bl	800285c <free>
 800159a:	782b      	ldrb	r3, [r5, #0]
 800159c:	2b01      	cmp	r3, #1
 800159e:	f47f ae1a 	bne.w	80011d6 <cocobot_com_on_transfer_received+0x176>
 80015a2:	2302      	movs	r3, #2
 80015a4:	702b      	strb	r3, [r5, #0]
 80015a6:	4b51      	ldr	r3, [pc, #324]	; (80016ec <cocobot_com_on_transfer_received+0x68c>)
 80015a8:	e9d3 0100 	ldrd	r0, r1, [r3]
 80015ac:	4b50      	ldr	r3, [pc, #320]	; (80016f0 <cocobot_com_on_transfer_received+0x690>)
 80015ae:	e9c3 0100 	strd	r0, r1, [r3]
 80015b2:	4b50      	ldr	r3, [pc, #320]	; (80016f4 <cocobot_com_on_transfer_received+0x694>)
 80015b4:	2203      	movs	r2, #3
 80015b6:	701a      	strb	r2, [r3, #0]
 80015b8:	f7ff f938 	bl	800082c <cocobot_com_transmit_tx_queue>
 80015bc:	4b4e      	ldr	r3, [pc, #312]	; (80016f8 <cocobot_com_on_transfer_received+0x698>)
 80015be:	7ee2      	ldrb	r2, [r4, #27]
 80015c0:	2000      	movs	r0, #0
 80015c2:	2100      	movs	r1, #0
 80015c4:	e9c3 0100 	strd	r0, r1, [r3]
 80015c8:	4b4c      	ldr	r3, [pc, #304]	; (80016fc <cocobot_com_on_transfer_received+0x69c>)
 80015ca:	701a      	strb	r2, [r3, #0]
 80015cc:	b672      	cpsid	i
 80015ce:	4b41      	ldr	r3, [pc, #260]	; (80016d4 <cocobot_com_on_transfer_received+0x674>)
 80015d0:	691a      	ldr	r2, [r3, #16]
 80015d2:	f042 4200 	orr.w	r2, r2, #2147483648	; 0x80000000
 80015d6:	611a      	str	r2, [r3, #16]
 80015d8:	4a3f      	ldr	r2, [pc, #252]	; (80016d8 <cocobot_com_on_transfer_received+0x678>)
 80015da:	605a      	str	r2, [r3, #4]
 80015dc:	f102 3288 	add.w	r2, r2, #2290649224	; 0x88888888
 80015e0:	605a      	str	r2, [r3, #4]
 80015e2:	68da      	ldr	r2, [r3, #12]
 80015e4:	03d2      	lsls	r2, r2, #15
 80015e6:	d4fc      	bmi.n	80015e2 <cocobot_com_on_transfer_received+0x582>
 80015e8:	493a      	ldr	r1, [pc, #232]	; (80016d4 <cocobot_com_on_transfer_received+0x674>)
 80015ea:	2208      	movs	r2, #8
 80015ec:	f240 2402 	movw	r4, #514	; 0x202
 80015f0:	4608      	mov	r0, r1
 80015f2:	ea42 0304 	orr.w	r3, r2, r4
 80015f6:	610b      	str	r3, [r1, #16]
 80015f8:	690b      	ldr	r3, [r1, #16]
 80015fa:	f443 3380 	orr.w	r3, r3, #65536	; 0x10000
 80015fe:	610b      	str	r3, [r1, #16]
 8001600:	68c3      	ldr	r3, [r0, #12]
 8001602:	f413 3380 	ands.w	r3, r3, #65536	; 0x10000
 8001606:	d1fb      	bne.n	8001600 <cocobot_com_on_transfer_received+0x5a0>
 8001608:	3208      	adds	r2, #8
 800160a:	2a58      	cmp	r2, #88	; 0x58
 800160c:	d1f1      	bne.n	80015f2 <cocobot_com_on_transfer_received+0x592>
 800160e:	6103      	str	r3, [r0, #16]
 8001610:	b662      	cpsie	i
 8001612:	f7ff fcc1 	bl	8000f98 <cocobot_loader_read>
 8001616:	e5de      	b.n	80011d6 <cocobot_com_on_transfer_received+0x176>
 8001618:	2302      	movs	r3, #2
 800161a:	e790      	b.n	800153e <cocobot_com_on_transfer_received+0x4de>
 800161c:	9a14      	ldr	r2, [sp, #80]	; 0x50
 800161e:	4638      	mov	r0, r7
 8001620:	4413      	add	r3, r2
 8001622:	2208      	movs	r2, #8
 8001624:	f7ff fa9e 	bl	8000b64 <canardEncodeScalar>
 8001628:	4633      	mov	r3, r6
 800162a:	e799      	b.n	8001560 <cocobot_com_on_transfer_received+0x500>
 800162c:	2f00      	cmp	r7, #0
 800162e:	f040 80ca 	bne.w	80017c6 <cocobot_com_on_transfer_received+0x766>
 8001632:	8acb      	ldrh	r3, [r1, #22]
 8001634:	2b30      	cmp	r3, #48	; 0x30
 8001636:	f040 80c6 	bne.w	80017c6 <cocobot_com_on_transfer_received+0x766>
 800163a:	4b2a      	ldr	r3, [pc, #168]	; (80016e4 <cocobot_com_on_transfer_received+0x684>)
 800163c:	781a      	ldrb	r2, [r3, #0]
 800163e:	2a02      	cmp	r2, #2
 8001640:	4699      	mov	r9, r3
 8001642:	f040 80c0 	bne.w	80017c6 <cocobot_com_on_transfer_received+0x766>
 8001646:	f44f 7082 	mov.w	r0, #260	; 0x104
 800164a:	f001 f8ff 	bl	800284c <malloc>
 800164e:	4605      	mov	r5, r0
 8001650:	2800      	cmp	r0, #0
 8001652:	f43f adc0 	beq.w	80011d6 <cocobot_com_on_transfer_received+0x176>
 8001656:	ab12      	add	r3, sp, #72	; 0x48
 8001658:	8aa6      	ldrh	r6, [r4, #20]
 800165a:	461a      	mov	r2, r3
 800165c:	4639      	mov	r1, r7
 800165e:	3701      	adds	r7, #1
 8001660:	2f0c      	cmp	r7, #12
 8001662:	f803 1b01 	strb.w	r1, [r3], #1
 8001666:	d1fa      	bne.n	800165e <cocobot_com_on_transfer_received+0x5fe>
 8001668:	9200      	str	r2, [sp, #0]
 800166a:	2100      	movs	r1, #0
 800166c:	2301      	movs	r3, #1
 800166e:	2210      	movs	r2, #16
 8001670:	4620      	mov	r0, r4
 8001672:	f7ff fb55 	bl	8000d20 <canardDecodeScalar>
 8001676:	2810      	cmp	r0, #16
 8001678:	4601      	mov	r1, r0
 800167a:	f040 809e 	bne.w	80017ba <cocobot_com_on_transfer_received+0x75a>
 800167e:	2e00      	cmp	r6, #0
 8001680:	d03e      	beq.n	8001700 <cocobot_com_on_transfer_received+0x6a0>
 8001682:	00f6      	lsls	r6, r6, #3
 8001684:	f1b6 0310 	subs.w	r3, r6, #16
 8001688:	bf48      	it	mi
 800168a:	f1a6 0309 	submi.w	r3, r6, #9
 800168e:	10db      	asrs	r3, r3, #3
 8001690:	f8ad 304c 	strh.w	r3, [sp, #76]	; 0x4c
 8001694:	2710      	movs	r7, #16
 8001696:	9514      	str	r5, [sp, #80]	; 0x50
 8001698:	2600      	movs	r6, #0
 800169a:	f8bd 304c 	ldrh.w	r3, [sp, #76]	; 0x4c
 800169e:	429e      	cmp	r6, r3
 80016a0:	eb05 0206 	add.w	r2, r5, r6
 80016a4:	d337      	bcc.n	8001716 <cocobot_com_on_transfer_received+0x6b6>
 80016a6:	4621      	mov	r1, r4
 80016a8:	480f      	ldr	r0, [pc, #60]	; (80016e8 <cocobot_com_on_transfer_received+0x688>)
 80016aa:	f7fe fedf 	bl	800046c <canardReleaseRxTransferPayload>
 80016ae:	f9bd 3048 	ldrsh.w	r3, [sp, #72]	; 0x48
 80016b2:	2b00      	cmp	r3, #0
 80016b4:	d03b      	beq.n	800172e <cocobot_com_on_transfer_received+0x6ce>
 80016b6:	2300      	movs	r3, #0
 80016b8:	f889 3000 	strb.w	r3, [r9]
 80016bc:	4b0d      	ldr	r3, [pc, #52]	; (80016f4 <cocobot_com_on_transfer_received+0x694>)
 80016be:	2202      	movs	r2, #2
 80016c0:	701a      	strb	r2, [r3, #0]
 80016c2:	e07a      	b.n	80017ba <cocobot_com_on_transfer_received+0x75a>
 80016c4:	f3af 8000 	nop.w
 80016c8:	72724126 	rsbsvc	r4, r2, #-2147483639	; 0x80000009
 80016cc:	b7d725df 			; <UNDEFINED> instruction: 0xb7d725df
 80016d0:	08002bde 	stmdaeq	r0, {r1, r2, r3, r4, r6, r7, r8, r9, fp, sp}
 80016d4:	40023c00 	andmi	r3, r2, r0, lsl #24
 80016d8:	45670123 	strbmi	r0, [r7, #-291]!	; 0xfffffedd
 80016dc:	08002bc8 	stmdaeq	r0, {r3, r6, r7, r8, r9, fp, sp}
 80016e0:	2000048d 	andcs	r0, r0, sp, lsl #9
 80016e4:	20000614 	andcs	r0, r0, r4, lsl r6
 80016e8:	20000068 	andcs	r0, r0, r8, rrx
 80016ec:	20000638 	andcs	r0, r0, r8, lsr r6
 80016f0:	20000608 	andcs	r0, r0, r8, lsl #12
 80016f4:	20000000 	andcs	r0, r0, r0
 80016f8:	20000620 	andcs	r0, r0, r0, lsr #12
 80016fc:	20000629 	andcs	r0, r0, r9, lsr #12
 8001700:	ab13      	add	r3, sp, #76	; 0x4c
 8001702:	9300      	str	r3, [sp, #0]
 8001704:	2209      	movs	r2, #9
 8001706:	4633      	mov	r3, r6
 8001708:	4620      	mov	r0, r4
 800170a:	f7ff fb09 	bl	8000d20 <canardDecodeScalar>
 800170e:	2809      	cmp	r0, #9
 8001710:	d153      	bne.n	80017ba <cocobot_com_on_transfer_received+0x75a>
 8001712:	2719      	movs	r7, #25
 8001714:	e7bf      	b.n	8001696 <cocobot_com_on_transfer_received+0x636>
 8001716:	9200      	str	r2, [sp, #0]
 8001718:	2300      	movs	r3, #0
 800171a:	2208      	movs	r2, #8
 800171c:	eb07 01c6 	add.w	r1, r7, r6, lsl #3
 8001720:	4620      	mov	r0, r4
 8001722:	f7ff fafd 	bl	8000d20 <canardDecodeScalar>
 8001726:	2808      	cmp	r0, #8
 8001728:	d147      	bne.n	80017ba <cocobot_com_on_transfer_received+0x75a>
 800172a:	3601      	adds	r6, #1
 800172c:	e7b5      	b.n	800169a <cocobot_com_on_transfer_received+0x63a>
 800172e:	4828      	ldr	r0, [pc, #160]	; (80017d0 <cocobot_com_on_transfer_received+0x770>)
 8001730:	4b28      	ldr	r3, [pc, #160]	; (80017d4 <cocobot_com_on_transfer_received+0x774>)
 8001732:	9a14      	ldr	r2, [sp, #80]	; 0x50
 8001734:	f8bd 704c 	ldrh.w	r7, [sp, #76]	; 0x4c
 8001738:	f240 2101 	movw	r1, #513	; 0x201
 800173c:	e9d0 4600 	ldrd	r4, r6, [r0]
 8001740:	6119      	str	r1, [r3, #16]
 8001742:	68d9      	ldr	r1, [r3, #12]
 8001744:	f411 3180 	ands.w	r1, r1, #65536	; 0x10000
 8001748:	d1fb      	bne.n	8001742 <cocobot_com_on_transfer_received+0x6e2>
 800174a:	f104 6c00 	add.w	ip, r4, #134217728	; 0x8000000
 800174e:	f8df e084 	ldr.w	lr, [pc, #132]	; 80017d4 <cocobot_com_on_transfer_received+0x774>
 8001752:	f50c 4c80 	add.w	ip, ip, #16384	; 0x4000
 8001756:	428f      	cmp	r7, r1
 8001758:	d80a      	bhi.n	8001770 <cocobot_com_on_transfer_received+0x710>
 800175a:	4b1e      	ldr	r3, [pc, #120]	; (80017d4 <cocobot_com_on_transfer_received+0x774>)
 800175c:	2200      	movs	r2, #0
 800175e:	2fff      	cmp	r7, #255	; 0xff
 8001760:	611a      	str	r2, [r3, #16]
 8001762:	d81c      	bhi.n	800179e <cocobot_com_on_transfer_received+0x73e>
 8001764:	4b1c      	ldr	r3, [pc, #112]	; (80017d8 <cocobot_com_on_transfer_received+0x778>)
 8001766:	681b      	ldr	r3, [r3, #0]
 8001768:	3301      	adds	r3, #1
 800176a:	d026      	beq.n	80017ba <cocobot_com_on_transfer_received+0x75a>
 800176c:	f7fe fea0 	bl	80004b0 <mcual_loader_boot.part.0>
 8001770:	7893      	ldrb	r3, [r2, #2]
 8001772:	f892 9001 	ldrb.w	r9, [r2, #1]
 8001776:	f892 8000 	ldrb.w	r8, [r2]
 800177a:	041b      	lsls	r3, r3, #16
 800177c:	ea43 2309 	orr.w	r3, r3, r9, lsl #8
 8001780:	ea43 0308 	orr.w	r3, r3, r8
 8001784:	f892 8003 	ldrb.w	r8, [r2, #3]
 8001788:	ea43 6308 	orr.w	r3, r3, r8, lsl #24
 800178c:	f84c 3001 	str.w	r3, [ip, r1]
 8001790:	f8de 300c 	ldr.w	r3, [lr, #12]
 8001794:	03db      	lsls	r3, r3, #15
 8001796:	d4fb      	bmi.n	8001790 <cocobot_com_on_transfer_received+0x730>
 8001798:	3104      	adds	r1, #4
 800179a:	3204      	adds	r2, #4
 800179c:	e7db      	b.n	8001756 <cocobot_com_on_transfer_received+0x6f6>
 800179e:	f514 7480 	adds.w	r4, r4, #256	; 0x100
 80017a2:	f146 0600 	adc.w	r6, r6, #0
 80017a6:	e9c0 4600 	strd	r4, r6, [r0]
 80017aa:	f7ff fbf5 	bl	8000f98 <cocobot_loader_read>
 80017ae:	4b0b      	ldr	r3, [pc, #44]	; (80017dc <cocobot_com_on_transfer_received+0x77c>)
 80017b0:	e9d3 0100 	ldrd	r0, r1, [r3]
 80017b4:	4b0a      	ldr	r3, [pc, #40]	; (80017e0 <cocobot_com_on_transfer_received+0x780>)
 80017b6:	e9c3 0100 	strd	r0, r1, [r3]
 80017ba:	4628      	mov	r0, r5
 80017bc:	b025      	add	sp, #148	; 0x94
 80017be:	e8bd 4ff0 	ldmia.w	sp!, {r4, r5, r6, r7, r8, r9, sl, fp, lr}
 80017c2:	f001 b84b 	b.w	800285c <free>
 80017c6:	4621      	mov	r1, r4
 80017c8:	4640      	mov	r0, r8
 80017ca:	f7fe fe4f 	bl	800046c <canardReleaseRxTransferPayload>
 80017ce:	e502      	b.n	80011d6 <cocobot_com_on_transfer_received+0x176>
 80017d0:	20000620 	andcs	r0, r0, r0, lsr #12
 80017d4:	40023c00 	andmi	r3, r2, r0, lsl #24
 80017d8:	08004000 	stmdaeq	r0, {lr}
 80017dc:	20000638 	andcs	r0, r0, r8, lsr r6
 80017e0:	20000608 	andcs	r0, r0, r8, lsl #12

080017e4 <main>:
 80017e4:	4acf      	ldr	r2, [pc, #828]	; (8001b24 <main+0x340>)
 80017e6:	f8df c37c 	ldr.w	ip, [pc, #892]	; 8001b64 <main+0x380>
 80017ea:	6893      	ldr	r3, [r2, #8]
 80017ec:	6811      	ldr	r1, [r2, #0]
 80017ee:	f041 0101 	orr.w	r1, r1, #1
 80017f2:	e92d 4ff0 	stmdb	sp!, {r4, r5, r6, r7, r8, r9, sl, fp, lr}
 80017f6:	6011      	str	r1, [r2, #0]
 80017f8:	49cb      	ldr	r1, [pc, #812]	; (8001b28 <main+0x344>)
 80017fa:	f8df 836c 	ldr.w	r8, [pc, #876]	; 8001b68 <main+0x384>
 80017fe:	680a      	ldr	r2, [r1, #0]
 8001800:	f8df 9368 	ldr.w	r9, [pc, #872]	; 8001b6c <main+0x388>
 8001804:	f022 020f 	bic.w	r2, r2, #15
 8001808:	f042 0205 	orr.w	r2, r2, #5
 800180c:	600a      	str	r2, [r1, #0]
 800180e:	2201      	movs	r2, #1
 8001810:	b09d      	sub	sp, #116	; 0x74
 8001812:	2102      	movs	r1, #2
 8001814:	4616      	mov	r6, r2
 8001816:	f04f 37ff 	mov.w	r7, #4294967295	; 0xffffffff
 800181a:	f44f 5e7a 	mov.w	lr, #16000	; 0x3e80
 800181e:	fb0c f001 	mul.w	r0, ip, r1
 8001822:	f5a0 303b 	sub.w	r0, r0, #191488	; 0x2ec00
 8001826:	f5a0 7000 	sub.w	r0, r0, #512	; 0x200
 800182a:	4540      	cmp	r0, r8
 800182c:	d815      	bhi.n	800185a <main+0x76>
 800182e:	fb09 f401 	mul.w	r4, r9, r1
 8001832:	008d      	lsls	r5, r1, #2
 8001834:	fbb4 f4fe 	udiv	r4, r4, lr
 8001838:	fb0e f004 	mul.w	r0, lr, r4
 800183c:	fbb0 f5f5 	udiv	r5, r0, r5
 8001840:	ebbc 0005 	subs.w	r0, ip, r5
 8001844:	bf44      	itt	mi
 8001846:	f5a5 3024 	submi.w	r0, r5, #167936	; 0x29000
 800184a:	3840      	submi	r0, #64	; 0x40
 800184c:	2f00      	cmp	r7, #0
 800184e:	db01      	blt.n	8001854 <main+0x70>
 8001850:	42b8      	cmp	r0, r7
 8001852:	da02      	bge.n	800185a <main+0x76>
 8001854:	4607      	mov	r7, r0
 8001856:	460a      	mov	r2, r1
 8001858:	4626      	mov	r6, r4
 800185a:	3102      	adds	r1, #2
 800185c:	290a      	cmp	r1, #10
 800185e:	d1de      	bne.n	800181e <main+0x3a>
 8001860:	1052      	asrs	r2, r2, #1
 8001862:	01b1      	lsls	r1, r6, #6
 8001864:	3a01      	subs	r2, #1
 8001866:	ea41 4202 	orr.w	r2, r1, r2, lsl #16
 800186a:	f44f 517a 	mov.w	r1, #16000	; 0x3e80
 800186e:	4dad      	ldr	r5, [pc, #692]	; (8001b24 <main+0x340>)
 8001870:	434e      	muls	r6, r1
 8001872:	f042 0204 	orr.w	r2, r2, #4
 8001876:	49ad      	ldr	r1, [pc, #692]	; (8001b2c <main+0x348>)
 8001878:	fbb6 f6f1 	udiv	r6, r6, r1
 800187c:	3601      	adds	r6, #1
 800187e:	ea42 6206 	orr.w	r2, r2, r6, lsl #24
 8001882:	606a      	str	r2, [r5, #4]
 8001884:	682a      	ldr	r2, [r5, #0]
 8001886:	f042 7280 	orr.w	r2, r2, #16777216	; 0x1000000
 800188a:	602a      	str	r2, [r5, #0]
 800188c:	682a      	ldr	r2, [r5, #0]
 800188e:	0191      	lsls	r1, r2, #6
 8001890:	d5fc      	bpl.n	800188c <main+0xa8>
 8001892:	f423 437c 	bic.w	r3, r3, #64512	; 0xfc00
 8001896:	f023 03f3 	bic.w	r3, r3, #243	; 0xf3
 800189a:	f443 4314 	orr.w	r3, r3, #37888	; 0x9400
 800189e:	f043 0302 	orr.w	r3, r3, #2
 80018a2:	60ab      	str	r3, [r5, #8]
 80018a4:	b662      	cpsie	i
 80018a6:	2201      	movs	r2, #1
 80018a8:	f8df 82c4 	ldr.w	r8, [pc, #708]	; 8001b70 <main+0x38c>
 80018ac:	f44f 7400 	mov.w	r4, #512	; 0x200
 80018b0:	4610      	mov	r0, r2
 80018b2:	f44f 7100 	mov.w	r1, #512	; 0x200
 80018b6:	f7fe fef1 	bl	800069c <mcual_gpio_init>
 80018ba:	f8a8 401a 	strh.w	r4, [r8, #26]
 80018be:	2200      	movs	r2, #0
 80018c0:	f44f 7180 	mov.w	r1, #256	; 0x100
 80018c4:	2004      	movs	r0, #4
 80018c6:	f7fe fee9 	bl	800069c <mcual_gpio_init>
 80018ca:	2201      	movs	r2, #1
 80018cc:	4610      	mov	r0, r2
 80018ce:	f44f 7180 	mov.w	r1, #256	; 0x100
 80018d2:	f7fe fee3 	bl	800069c <mcual_gpio_init>
 80018d6:	2201      	movs	r2, #1
 80018d8:	4611      	mov	r1, r2
 80018da:	2000      	movs	r0, #0
 80018dc:	f7fe fede 	bl	800069c <mcual_gpio_init>
 80018e0:	2201      	movs	r2, #1
 80018e2:	2102      	movs	r1, #2
 80018e4:	2000      	movs	r0, #0
 80018e6:	f7fe fed9 	bl	800069c <mcual_gpio_init>
 80018ea:	2201      	movs	r2, #1
 80018ec:	4611      	mov	r1, r2
 80018ee:	2000      	movs	r0, #0
 80018f0:	f7fe fe96 	bl	8000620 <mcual_gpio_set_function>
 80018f4:	2201      	movs	r2, #1
 80018f6:	2102      	movs	r1, #2
 80018f8:	2000      	movs	r0, #0
 80018fa:	f7fe fe91 	bl	8000620 <mcual_gpio_set_function>
 80018fe:	2201      	movs	r2, #1
 8001900:	f44f 4100 	mov.w	r1, #32768	; 0x8000
 8001904:	2000      	movs	r0, #0
 8001906:	f7fe fec9 	bl	800069c <mcual_gpio_init>
 800190a:	2201      	movs	r2, #1
 800190c:	4610      	mov	r0, r2
 800190e:	2108      	movs	r1, #8
 8001910:	f7fe fec4 	bl	800069c <mcual_gpio_init>
 8001914:	2202      	movs	r2, #2
 8001916:	f44f 4100 	mov.w	r1, #32768	; 0x8000
 800191a:	2000      	movs	r0, #0
 800191c:	f7fe fe80 	bl	8000620 <mcual_gpio_set_function>
 8001920:	2202      	movs	r2, #2
 8001922:	2108      	movs	r1, #8
 8001924:	2001      	movs	r0, #1
 8001926:	f7fe fe7b 	bl	8000620 <mcual_gpio_set_function>
 800192a:	6c2b      	ldr	r3, [r5, #64]	; 0x40
 800192c:	f043 0301 	orr.w	r3, r3, #1
 8001930:	642b      	str	r3, [r5, #64]	; 0x40
 8001932:	f04f 4380 	mov.w	r3, #1073741824	; 0x40000000
 8001936:	2601      	movs	r6, #1
 8001938:	2703      	movs	r7, #3
 800193a:	f04f 30ff 	mov.w	r0, #4294967295	; 0xffffffff
 800193e:	f240 1101 	movw	r1, #257	; 0x101
 8001942:	f06f 4200 	mvn.w	r2, #2147483648	; 0x80000000
 8001946:	62d8      	str	r0, [r3, #44]	; 0x2c
 8001948:	811f      	strh	r7, [r3, #8]
 800194a:	8319      	strh	r1, [r3, #24]
 800194c:	625a      	str	r2, [r3, #36]	; 0x24
 800194e:	801e      	strh	r6, [r3, #0]
 8001950:	6c2b      	ldr	r3, [r5, #64]	; 0x40
 8001952:	f043 0308 	orr.w	r3, r3, #8
 8001956:	642b      	str	r3, [r5, #64]	; 0x40
 8001958:	4b75      	ldr	r3, [pc, #468]	; (8001b30 <main+0x34c>)
 800195a:	62d8      	str	r0, [r3, #44]	; 0x2c
 800195c:	811f      	strh	r7, [r3, #8]
 800195e:	2000      	movs	r0, #0
 8001960:	8319      	strh	r1, [r3, #24]
 8001962:	625a      	str	r2, [r3, #36]	; 0x24
 8001964:	4621      	mov	r1, r4
 8001966:	801e      	strh	r6, [r3, #0]
 8001968:	4632      	mov	r2, r6
 800196a:	f7fe fe97 	bl	800069c <mcual_gpio_init>
 800196e:	2200      	movs	r2, #0
 8001970:	4610      	mov	r0, r2
 8001972:	f44f 6180 	mov.w	r1, #1024	; 0x400
 8001976:	f7fe fe91 	bl	800069c <mcual_gpio_init>
 800197a:	4621      	mov	r1, r4
 800197c:	2207      	movs	r2, #7
 800197e:	2000      	movs	r0, #0
 8001980:	f7fe fe4e 	bl	8000620 <mcual_gpio_set_function>
 8001984:	2207      	movs	r2, #7
 8001986:	f44f 6180 	mov.w	r1, #1024	; 0x400
 800198a:	2000      	movs	r0, #0
 800198c:	f7fe fe48 	bl	8000620 <mcual_gpio_set_function>
 8001990:	4b68      	ldr	r3, [pc, #416]	; (8001b34 <main+0x350>)
 8001992:	2400      	movs	r4, #0
 8001994:	605c      	str	r4, [r3, #4]
 8001996:	4b68      	ldr	r3, [pc, #416]	; (8001b38 <main+0x354>)
 8001998:	605c      	str	r4, [r3, #4]
 800199a:	4b68      	ldr	r3, [pc, #416]	; (8001b3c <main+0x358>)
 800199c:	605c      	str	r4, [r3, #4]
 800199e:	4b68      	ldr	r3, [pc, #416]	; (8001b40 <main+0x35c>)
 80019a0:	605c      	str	r4, [r3, #4]
 80019a2:	6c6b      	ldr	r3, [r5, #68]	; 0x44
 80019a4:	f043 0310 	orr.w	r3, r3, #16
 80019a8:	646b      	str	r3, [r5, #68]	; 0x44
 80019aa:	2002      	movs	r0, #2
 80019ac:	f7fe feb8 	bl	8000720 <mcual_clock_get_frequency_Hz>
 80019b0:	ee07 0a90 	vmov	s15, r0
 80019b4:	ed9f 7a63 	vldr	s14, [pc, #396]	; 8001b44 <main+0x360>
 80019b8:	4a63      	ldr	r2, [pc, #396]	; (8001b48 <main+0x364>)
 80019ba:	4d64      	ldr	r5, [pc, #400]	; (8001b4c <main+0x368>)
 80019bc:	eef8 6a67 	vcvt.f32.u32	s13, s15
 80019c0:	4631      	mov	r1, r6
 80019c2:	eec6 7a87 	vdiv.f32	s15, s13, s14
 80019c6:	2002      	movs	r0, #2
 80019c8:	eefe 7ace 	vcvt.s32.f32	s15, s15, #4
 80019cc:	ee17 3a90 	vmov	r3, s15
 80019d0:	b29b      	uxth	r3, r3
 80019d2:	8113      	strh	r3, [r2, #8]
 80019d4:	f242 032c 	movw	r3, #8236	; 0x202c
 80019d8:	8214      	strh	r4, [r2, #16]
 80019da:	8294      	strh	r4, [r2, #20]
 80019dc:	8193      	strh	r3, [r2, #12]
 80019de:	4b5c      	ldr	r3, [pc, #368]	; (8001b50 <main+0x36c>)
 80019e0:	22f0      	movs	r2, #240	; 0xf0
 80019e2:	f883 2325 	strb.w	r2, [r3, #805]	; 0x325
 80019e6:	685a      	ldr	r2, [r3, #4]
 80019e8:	f042 0220 	orr.w	r2, r2, #32
 80019ec:	605a      	str	r2, [r3, #4]
 80019ee:	4622      	mov	r2, r4
 80019f0:	f7fe fe54 	bl	800069c <mcual_gpio_init>
 80019f4:	4632      	mov	r2, r6
 80019f6:	2104      	movs	r1, #4
 80019f8:	4638      	mov	r0, r7
 80019fa:	f7fe fe4f 	bl	800069c <mcual_gpio_init>
 80019fe:	4622      	mov	r2, r4
 8001a00:	f44f 6100 	mov.w	r1, #2048	; 0x800
 8001a04:	2002      	movs	r0, #2
 8001a06:	f7fe fe49 	bl	800069c <mcual_gpio_init>
 8001a0a:	4632      	mov	r2, r6
 8001a0c:	f44f 51a0 	mov.w	r1, #5120	; 0x1400
 8001a10:	2002      	movs	r0, #2
 8001a12:	f7fe fe43 	bl	800069c <mcual_gpio_init>
 8001a16:	4b4f      	ldr	r3, [pc, #316]	; (8001b54 <main+0x370>)
 8001a18:	2204      	movs	r2, #4
 8001a1a:	831a      	strh	r2, [r3, #24]
 8001a1c:	2102      	movs	r1, #2
 8001a1e:	4632      	mov	r2, r6
 8001a20:	4638      	mov	r0, r7
 8001a22:	f7fe fe3b 	bl	800069c <mcual_gpio_init>
 8001a26:	4622      	mov	r2, r4
 8001a28:	4631      	mov	r1, r6
 8001a2a:	4638      	mov	r0, r7
 8001a2c:	f7fe fe36 	bl	800069c <mcual_gpio_init>
 8001a30:	2209      	movs	r2, #9
 8001a32:	4631      	mov	r1, r6
 8001a34:	4638      	mov	r0, r7
 8001a36:	f7fe fdf3 	bl	8000620 <mcual_gpio_set_function>
 8001a3a:	2209      	movs	r2, #9
 8001a3c:	2102      	movs	r1, #2
 8001a3e:	4638      	mov	r0, r7
 8001a40:	f7fe fdee 	bl	8000620 <mcual_gpio_set_function>
 8001a44:	4622      	mov	r2, r4
 8001a46:	21c0      	movs	r1, #192	; 0xc0
 8001a48:	4630      	mov	r0, r6
 8001a4a:	f7fe fe27 	bl	800069c <mcual_gpio_init>
 8001a4e:	4621      	mov	r1, r4
 8001a50:	2218      	movs	r2, #24
 8001a52:	4628      	mov	r0, r5
 8001a54:	f000 ff18 	bl	8002888 <memset>
 8001a58:	4b3f      	ldr	r3, [pc, #252]	; (8001b58 <main+0x374>)
 8001a5a:	60ab      	str	r3, [r5, #8]
 8001a5c:	4b3f      	ldr	r3, [pc, #252]	; (8001b5c <main+0x378>)
 8001a5e:	606b      	str	r3, [r5, #4]
 8001a60:	e9c5 4406 	strd	r4, r4, [r5, #24]
 8001a64:	4b3e      	ldr	r3, [pc, #248]	; (8001b60 <main+0x37c>)
 8001a66:	622c      	str	r4, [r5, #32]
 8001a68:	f105 000c 	add.w	r0, r5, #12
 8001a6c:	f8cd 803c 	str.w	r8, [sp, #60]	; 0x3c
 8001a70:	4619      	mov	r1, r3
 8001a72:	3401      	adds	r4, #1
 8001a74:	2c20      	cmp	r4, #32
 8001a76:	6003      	str	r3, [r0, #0]
 8001a78:	4618      	mov	r0, r3
 8001a7a:	f103 0320 	add.w	r3, r3, #32
 8001a7e:	d1f8      	bne.n	8001a72 <main+0x28e>
 8001a80:	2600      	movs	r6, #0
 8001a82:	f8c1 63e0 	str.w	r6, [r1, #992]	; 0x3e0
 8001a86:	612c      	str	r4, [r5, #16]
 8001a88:	82ae      	strh	r6, [r5, #20]
 8001a8a:	2001      	movs	r0, #1
 8001a8c:	f7fe fe48 	bl	8000720 <mcual_clock_get_frequency_Hz>
 8001a90:	9614      	str	r6, [sp, #80]	; 0x50
 8001a92:	f8ad 6054 	strh.w	r6, [sp, #84]	; 0x54
 8001a96:	2111      	movs	r1, #17
 8001a98:	f242 7310 	movw	r3, #10000	; 0x2710
 8001a9c:	fbb0 f3f3 	udiv	r3, r0, r3
 8001aa0:	1e4a      	subs	r2, r1, #1
 8001aa2:	fbb3 f7f1 	udiv	r7, r3, r1
 8001aa6:	fb01 3117 	mls	r1, r1, r7, r3
 8001aaa:	b2d6      	uxtb	r6, r2
 8001aac:	2900      	cmp	r1, #0
 8001aae:	d161      	bne.n	8001b74 <main+0x390>
 8001ab0:	1e7b      	subs	r3, r7, #1
 8001ab2:	f5b3 6f80 	cmp.w	r3, #1024	; 0x400
 8001ab6:	d260      	bcs.n	8001b7a <main+0x396>
 8001ab8:	ebc6 0ec6 	rsb	lr, r6, r6, lsl #3
 8001abc:	f10e 0303 	add.w	r3, lr, #3
 8001ac0:	10db      	asrs	r3, r3, #3
 8001ac2:	b2da      	uxtb	r2, r3
 8001ac4:	1ab4      	subs	r4, r6, r2
 8001ac6:	3301      	adds	r3, #1
 8001ac8:	b2e4      	uxtb	r4, r4
 8001aca:	f44f 7c7a 	mov.w	ip, #1000	; 0x3e8
 8001ace:	fb0c fc03 	mul.w	ip, ip, r3
 8001ad2:	4423      	add	r3, r4
 8001ad4:	fbbc f3f3 	udiv	r3, ip, r3
 8001ad8:	f5b3 7f61 	cmp.w	r3, #900	; 0x384
 8001adc:	d909      	bls.n	8001af2 <main+0x30e>
 8001ade:	f10e 32ff 	add.w	r2, lr, #4294967295	; 0xffffffff
 8001ae2:	f3c2 02c7 	ubfx	r2, r2, #3, #8
 8001ae6:	1e53      	subs	r3, r2, #1
 8001ae8:	1ab4      	subs	r4, r6, r2
 8001aea:	2b0f      	cmp	r3, #15
 8001aec:	b2e4      	uxtb	r4, r4
 8001aee:	f200 812f 	bhi.w	8001d50 <main+0x56c>
 8001af2:	1e63      	subs	r3, r4, #1
 8001af4:	2b07      	cmp	r3, #7
 8001af6:	bf8c      	ite	hi
 8001af8:	2300      	movhi	r3, #0
 8001afa:	2301      	movls	r3, #1
 8001afc:	1911      	adds	r1, r2, r4
 8001afe:	fb01 7107 	mla	r1, r1, r7, r7
 8001b02:	fbb0 f0f1 	udiv	r0, r0, r1
 8001b06:	f242 7110 	movw	r1, #10000	; 0x2710
 8001b0a:	4288      	cmp	r0, r1
 8001b0c:	d135      	bne.n	8001b7a <main+0x396>
 8001b0e:	b3a3      	cbz	r3, 8001b7a <main+0x396>
 8001b10:	2301      	movs	r3, #1
 8001b12:	f8ad 7050 	strh.w	r7, [sp, #80]	; 0x50
 8001b16:	f88d 3054 	strb.w	r3, [sp, #84]	; 0x54
 8001b1a:	f88d 2052 	strb.w	r2, [sp, #82]	; 0x52
 8001b1e:	f88d 4053 	strb.w	r4, [sp, #83]	; 0x53
 8001b22:	e02a      	b.n	8001b7a <main+0x396>
 8001b24:	40023800 	andmi	r3, r2, r0, lsl #16
 8001b28:	40023c00 	andmi	r3, r2, r0, lsl #24
 8001b2c:	0002ee04 	andeq	lr, r2, r4, lsl #28
 8001b30:	40000c00 	andmi	r0, r0, r0, lsl #24
 8001b34:	2000229c 	mulcs	r0, ip, r2
 8001b38:	200022c0 	andcs	r2, r0, r0, asr #5
 8001b3c:	20001248 	andcs	r1, r0, r8, asr #4
 8001b40:	2000126c 	andcs	r1, r0, ip, ror #4
 8001b44:	49e10000 	stmibmi	r1!, {}^	; <UNPREDICTABLE>
 8001b48:	40011000 	andmi	r1, r1, r0
 8001b4c:	20000068 	andcs	r0, r0, r8, rrx
 8001b50:	e000e100 	and	lr, r0, r0, lsl #2
 8001b54:	40020c00 	andmi	r0, r2, r0, lsl #24
 8001b58:	08001061 	stmdaeq	r0, {r0, r5, r6, ip}
 8001b5c:	080008b9 	stmdaeq	r0, {r0, r3, r4, r5, r7, fp}
 8001b60:	2000008c 	andcs	r0, r0, ip, lsl #1
 8001b64:	00029040 	andeq	r9, r2, r0, asr #32
 8001b68:	0003a980 	andeq	sl, r3, r0, lsl #19
 8001b6c:	000a4100 	andeq	r4, sl, r0, lsl #2
 8001b70:	40020400 	andmi	r0, r2, r0, lsl #8
 8001b74:	2a02      	cmp	r2, #2
 8001b76:	4611      	mov	r1, r2
 8001b78:	d192      	bne.n	8001aa0 <main+0x2bc>
 8001b7a:	f8bd 9050 	ldrh.w	r9, [sp, #80]	; 0x50
 8001b7e:	f109 39ff 	add.w	r9, r9, #4294967295	; 0xffffffff
 8001b82:	fa1f f389 	uxth.w	r3, r9
 8001b86:	f5b3 6f80 	cmp.w	r3, #1024	; 0x400
 8001b8a:	d236      	bcs.n	8001bfa <main+0x416>
 8001b8c:	f89d a054 	ldrb.w	sl, [sp, #84]	; 0x54
 8001b90:	f10a 3aff 	add.w	sl, sl, #4294967295	; 0xffffffff
 8001b94:	fa5f f38a 	uxtb.w	r3, sl
 8001b98:	2b03      	cmp	r3, #3
 8001b9a:	d82e      	bhi.n	8001bfa <main+0x416>
 8001b9c:	f89d 6052 	ldrb.w	r6, [sp, #82]	; 0x52
 8001ba0:	3e01      	subs	r6, #1
 8001ba2:	b2f3      	uxtb	r3, r6
 8001ba4:	2b0f      	cmp	r3, #15
 8001ba6:	d828      	bhi.n	8001bfa <main+0x416>
 8001ba8:	f89d 8053 	ldrb.w	r8, [sp, #83]	; 0x53
 8001bac:	f108 38ff 	add.w	r8, r8, #4294967295	; 0xffffffff
 8001bb0:	fa5f f388 	uxtb.w	r3, r8
 8001bb4:	2b07      	cmp	r3, #7
 8001bb6:	d820      	bhi.n	8001bfa <main+0x416>
 8001bb8:	4b8f      	ldr	r3, [pc, #572]	; (8001df8 <main+0x614>)
 8001bba:	4a90      	ldr	r2, [pc, #576]	; (8001dfc <main+0x618>)
 8001bbc:	4c90      	ldr	r4, [pc, #576]	; (8001e00 <main+0x61c>)
 8001bbe:	2700      	movs	r7, #0
 8001bc0:	601f      	str	r7, [r3, #0]
 8001bc2:	4b90      	ldr	r3, [pc, #576]	; (8001e04 <main+0x620>)
 8001bc4:	601f      	str	r7, [r3, #0]
 8001bc6:	4b90      	ldr	r3, [pc, #576]	; (8001e08 <main+0x624>)
 8001bc8:	601f      	str	r7, [r3, #0]
 8001bca:	4b90      	ldr	r3, [pc, #576]	; (8001e0c <main+0x628>)
 8001bcc:	601f      	str	r7, [r3, #0]
 8001bce:	6c13      	ldr	r3, [r2, #64]	; 0x40
 8001bd0:	f043 7300 	orr.w	r3, r3, #33554432	; 0x2000000
 8001bd4:	6413      	str	r3, [r2, #64]	; 0x40
 8001bd6:	6167      	str	r7, [r4, #20]
 8001bd8:	6823      	ldr	r3, [r4, #0]
 8001bda:	f023 0302 	bic.w	r3, r3, #2
 8001bde:	6023      	str	r3, [r4, #0]
 8001be0:	6823      	ldr	r3, [r4, #0]
 8001be2:	f043 0301 	orr.w	r3, r3, #1
 8001be6:	6023      	str	r3, [r4, #0]
 8001be8:	2001      	movs	r0, #1
 8001bea:	f7fe facd 	bl	8000188 <waitMSRINAKBitStateChange.constprop.29>
 8001bee:	2800      	cmp	r0, #0
 8001bf0:	f040 80b1 	bne.w	8001d56 <main+0x572>
 8001bf4:	f44f 4300 	mov.w	r3, #32768	; 0x8000
 8001bf8:	6023      	str	r3, [r4, #0]
 8001bfa:	782b      	ldrb	r3, [r5, #0]
 8001bfc:	b90b      	cbnz	r3, 8001c02 <main+0x41e>
 8001bfe:	230b      	movs	r3, #11
 8001c00:	702b      	strb	r3, [r5, #0]
 8001c02:	4b83      	ldr	r3, [pc, #524]	; (8001e10 <main+0x62c>)
 8001c04:	4a7d      	ldr	r2, [pc, #500]	; (8001dfc <main+0x618>)
 8001c06:	4e83      	ldr	r6, [pc, #524]	; (8001e14 <main+0x630>)
 8001c08:	2700      	movs	r7, #0
 8001c0a:	601f      	str	r7, [r3, #0]
 8001c0c:	4b82      	ldr	r3, [pc, #520]	; (8001e18 <main+0x634>)
 8001c0e:	2400      	movs	r4, #0
 8001c10:	2500      	movs	r5, #0
 8001c12:	e9c3 4500 	strd	r4, r5, [r3]
 8001c16:	4b81      	ldr	r3, [pc, #516]	; (8001e1c <main+0x638>)
 8001c18:	e9c3 4500 	strd	r4, r5, [r3]
 8001c1c:	6c53      	ldr	r3, [r2, #68]	; 0x44
 8001c1e:	f043 0301 	orr.w	r3, r3, #1
 8001c22:	6453      	str	r3, [r2, #68]	; 0x44
 8001c24:	f04f 33ff 	mov.w	r3, #4294967295	; 0xffffffff
 8001c28:	62f3      	str	r3, [r6, #44]	; 0x2c
 8001c2a:	2002      	movs	r0, #2
 8001c2c:	f7fe fd78 	bl	8000720 <mcual_clock_get_frequency_Hz>
 8001c30:	4b7b      	ldr	r3, [pc, #492]	; (8001e20 <main+0x63c>)
 8001c32:	0040      	lsls	r0, r0, #1
 8001c34:	fbb0 f0f3 	udiv	r0, r0, r3
 8001c38:	2301      	movs	r3, #1
 8001c3a:	b280      	uxth	r0, r0
 8001c3c:	8530      	strh	r0, [r6, #40]	; 0x28
 8001c3e:	82b3      	strh	r3, [r6, #20]
 8001c40:	8337      	strh	r7, [r6, #24]
 8001c42:	83b7      	strh	r7, [r6, #28]
 8001c44:	8437      	strh	r7, [r6, #32]
 8001c46:	6277      	str	r7, [r6, #36]	; 0x24
 8001c48:	8033      	strh	r3, [r6, #0]
 8001c4a:	4b76      	ldr	r3, [pc, #472]	; (8001e24 <main+0x640>)
 8001c4c:	701f      	strb	r7, [r3, #0]
 8001c4e:	4b76      	ldr	r3, [pc, #472]	; (8001e28 <main+0x644>)
 8001c50:	e9c3 4500 	strd	r4, r5, [r3]
 8001c54:	4b75      	ldr	r3, [pc, #468]	; (8001e2c <main+0x648>)
 8001c56:	701f      	strb	r7, [r3, #0]
 8001c58:	4b75      	ldr	r3, [pc, #468]	; (8001e30 <main+0x64c>)
 8001c5a:	e9c3 4500 	strd	r4, r5, [r3]
 8001c5e:	4b75      	ldr	r3, [pc, #468]	; (8001e34 <main+0x650>)
 8001c60:	2202      	movs	r2, #2
 8001c62:	701a      	strb	r2, [r3, #0]
 8001c64:	4a6a      	ldr	r2, [pc, #424]	; (8001e10 <main+0x62c>)
 8001c66:	4b6b      	ldr	r3, [pc, #428]	; (8001e14 <main+0x630>)
 8001c68:	f8df 919c 	ldr.w	r9, [pc, #412]	; 8001e08 <main+0x624>
 8001c6c:	6a58      	ldr	r0, [r3, #36]	; 0x24
 8001c6e:	6813      	ldr	r3, [r2, #0]
 8001c70:	6010      	str	r0, [r2, #0]
 8001c72:	1ac3      	subs	r3, r0, r3
 8001c74:	4868      	ldr	r0, [pc, #416]	; (8001e18 <main+0x634>)
 8001c76:	b299      	uxth	r1, r3
 8001c78:	e9d0 2300 	ldrd	r2, r3, [r0]
 8001c7c:	1854      	adds	r4, r2, r1
 8001c7e:	f143 0500 	adc.w	r5, r3, #0
 8001c82:	e9c0 4500 	strd	r4, r5, [r0]
 8001c86:	f7fe fdd1 	bl	800082c <cocobot_com_transmit_tx_queue>
 8001c8a:	b672      	cpsid	i
 8001c8c:	4b5f      	ldr	r3, [pc, #380]	; (8001e0c <main+0x628>)
 8001c8e:	f8d9 2000 	ldr.w	r2, [r9]
 8001c92:	681b      	ldr	r3, [r3, #0]
 8001c94:	429a      	cmp	r2, r3
 8001c96:	f040 80d9 	bne.w	8001e4c <main+0x668>
 8001c9a:	b662      	cpsie	i
 8001c9c:	4b5e      	ldr	r3, [pc, #376]	; (8001e18 <main+0x634>)
 8001c9e:	495f      	ldr	r1, [pc, #380]	; (8001e1c <main+0x638>)
 8001ca0:	e9d3 6700 	ldrd	r6, r7, [r3]
 8001ca4:	e9d1 2300 	ldrd	r2, r3, [r1]
 8001ca8:	429f      	cmp	r7, r3
 8001caa:	bf08      	it	eq
 8001cac:	4296      	cmpeq	r6, r2
 8001cae:	d334      	bcc.n	8001d1a <main+0x536>
 8001cb0:	9b0f      	ldr	r3, [sp, #60]	; 0x3c
 8001cb2:	9a0f      	ldr	r2, [sp, #60]	; 0x3c
 8001cb4:	695b      	ldr	r3, [r3, #20]
 8001cb6:	4d60      	ldr	r5, [pc, #384]	; (8001e38 <main+0x654>)
 8001cb8:	f483 7300 	eor.w	r3, r3, #512	; 0x200
 8001cbc:	6153      	str	r3, [r2, #20]
 8001cbe:	4b58      	ldr	r3, [pc, #352]	; (8001e20 <main+0x63c>)
 8001cc0:	f8d5 9018 	ldr.w	r9, [r5, #24]
 8001cc4:	18f3      	adds	r3, r6, r3
 8001cc6:	f04f 0200 	mov.w	r2, #0
 8001cca:	eb47 0202 	adc.w	r2, r7, r2
 8001cce:	e9c1 3200 	strd	r3, r2, [r1]
 8001cd2:	464c      	mov	r4, r9
 8001cd4:	46a8      	mov	r8, r5
 8001cd6:	2c00      	cmp	r4, #0
 8001cd8:	f040 82a1 	bne.w	800221e <main+0xa3a>
 8001cdc:	f8df 8168 	ldr.w	r8, [pc, #360]	; 8001e48 <main+0x664>
 8001ce0:	4a4f      	ldr	r2, [pc, #316]	; (8001e20 <main+0x63c>)
 8001ce2:	2300      	movs	r3, #0
 8001ce4:	4630      	mov	r0, r6
 8001ce6:	4639      	mov	r1, r7
 8001ce8:	f000 fde0 	bl	80028ac <__aeabi_uldivmod>
 8001cec:	f898 3000 	ldrb.w	r3, [r8]
 8001cf0:	f88d 3054 	strb.w	r3, [sp, #84]	; 0x54
 8001cf4:	4b4f      	ldr	r3, [pc, #316]	; (8001e34 <main+0x650>)
 8001cf6:	9014      	str	r0, [sp, #80]	; 0x50
 8001cf8:	781b      	ldrb	r3, [r3, #0]
 8001cfa:	f88d 3055 	strb.w	r3, [sp, #85]	; 0x55
 8001cfe:	a814      	add	r0, sp, #80	; 0x50
 8001d00:	f88d 4056 	strb.w	r4, [sp, #86]	; 0x56
 8001d04:	f8ad 4058 	strh.w	r4, [sp, #88]	; 0x58
 8001d08:	f7fe ff62 	bl	8000bd0 <uavcan_protocol_NodeStatus_encode_internal.constprop.51>
 8001d0c:	782b      	ldrb	r3, [r5, #0]
 8001d0e:	2b00      	cmp	r3, #0
 8001d10:	f040 82c1 	bne.w	8002296 <main+0xab2>
 8001d14:	2301      	movs	r3, #1
 8001d16:	f888 3000 	strb.w	r3, [r8]
 8001d1a:	4b48      	ldr	r3, [pc, #288]	; (8001e3c <main+0x658>)
 8001d1c:	e9c3 6700 	strd	r6, r7, [r3]
 8001d20:	4b40      	ldr	r3, [pc, #256]	; (8001e24 <main+0x640>)
 8001d22:	781a      	ldrb	r2, [r3, #0]
 8001d24:	2a00      	cmp	r2, #0
 8001d26:	f000 82f6 	beq.w	8002316 <main+0xb32>
 8001d2a:	4941      	ldr	r1, [pc, #260]	; (8001e30 <main+0x64c>)
 8001d2c:	483c      	ldr	r0, [pc, #240]	; (8001e20 <main+0x63c>)
 8001d2e:	e9d1 2100 	ldrd	r2, r1, [r1]
 8001d32:	1ab2      	subs	r2, r6, r2
 8001d34:	920c      	str	r2, [sp, #48]	; 0x30
 8001d36:	eb67 0201 	sbc.w	r2, r7, r1
 8001d3a:	920d      	str	r2, [sp, #52]	; 0x34
 8001d3c:	e9dd 450c 	ldrd	r4, r5, [sp, #48]	; 0x30
 8001d40:	2100      	movs	r1, #0
 8001d42:	42a9      	cmp	r1, r5
 8001d44:	bf08      	it	eq
 8001d46:	42a0      	cmpeq	r0, r4
 8001d48:	d28c      	bcs.n	8001c64 <main+0x480>
 8001d4a:	2200      	movs	r2, #0
 8001d4c:	701a      	strb	r2, [r3, #0]
 8001d4e:	e786      	b.n	8001c5e <main+0x47a>
 8001d50:	460a      	mov	r2, r1
 8001d52:	460b      	mov	r3, r1
 8001d54:	e6d2      	b.n	8001afc <main+0x318>
 8001d56:	0436      	lsls	r6, r6, #16
 8001d58:	ea46 660a 	orr.w	r6, r6, sl, lsl #24
 8001d5c:	ea46 0909 	orr.w	r9, r6, r9
 8001d60:	2361      	movs	r3, #97	; 0x61
 8001d62:	ea49 5608 	orr.w	r6, r9, r8, lsl #20
 8001d66:	6023      	str	r3, [r4, #0]
 8001d68:	61e6      	str	r6, [r4, #28]
 8001d6a:	6823      	ldr	r3, [r4, #0]
 8001d6c:	f023 0301 	bic.w	r3, r3, #1
 8001d70:	6023      	str	r3, [r4, #0]
 8001d72:	4638      	mov	r0, r7
 8001d74:	f7fe fa08 	bl	8000188 <waitMSRINAKBitStateChange.constprop.29>
 8001d78:	2800      	cmp	r0, #0
 8001d7a:	f43f af3b 	beq.w	8001bf4 <main+0x410>
 8001d7e:	f8d4 3200 	ldr.w	r3, [r4, #512]	; 0x200
 8001d82:	f423 537c 	bic.w	r3, r3, #16128	; 0x3f00
 8001d86:	f023 030e 	bic.w	r3, r3, #14
 8001d8a:	f443 6360 	orr.w	r3, r3, #3584	; 0xe00
 8001d8e:	f043 0301 	orr.w	r3, r3, #1
 8001d92:	f8c4 3200 	str.w	r3, [r4, #512]	; 0x200
 8001d96:	f06f 4370 	mvn.w	r3, #4026531840	; 0xf0000000
 8001d9a:	f8c4 7204 	str.w	r7, [r4, #516]	; 0x204
 8001d9e:	2201      	movs	r2, #1
 8001da0:	f8c4 320c 	str.w	r3, [r4, #524]	; 0x20c
 8001da4:	4b26      	ldr	r3, [pc, #152]	; (8001e40 <main+0x65c>)
 8001da6:	f8c4 3214 	str.w	r3, [r4, #532]	; 0x214
 8001daa:	f8c4 7240 	str.w	r7, [r4, #576]	; 0x240
 8001dae:	f8c4 7244 	str.w	r7, [r4, #580]	; 0x244
 8001db2:	f8c4 221c 	str.w	r2, [r4, #540]	; 0x21c
 8001db6:	f8d4 3200 	ldr.w	r3, [r4, #512]	; 0x200
 8001dba:	f023 0301 	bic.w	r3, r3, #1
 8001dbe:	f8c4 3200 	str.w	r3, [r4, #512]	; 0x200
 8001dc2:	6963      	ldr	r3, [r4, #20]
 8001dc4:	f043 0312 	orr.w	r3, r3, #18
 8001dc8:	6163      	str	r3, [r4, #20]
 8001dca:	4b1e      	ldr	r3, [pc, #120]	; (8001e44 <main+0x660>)
 8001dcc:	2170      	movs	r1, #112	; 0x70
 8001dce:	f883 1313 	strb.w	r1, [r3, #787]	; 0x313
 8001dd2:	2180      	movs	r1, #128	; 0x80
 8001dd4:	f883 1314 	strb.w	r1, [r3, #788]	; 0x314
 8001dd8:	2190      	movs	r1, #144	; 0x90
 8001dda:	f883 1315 	strb.w	r1, [r3, #789]	; 0x315
 8001dde:	f44f 2100 	mov.w	r1, #524288	; 0x80000
 8001de2:	6019      	str	r1, [r3, #0]
 8001de4:	f44f 1180 	mov.w	r1, #1048576	; 0x100000
 8001de8:	6019      	str	r1, [r3, #0]
 8001dea:	f44f 1100 	mov.w	r1, #2097152	; 0x200000
 8001dee:	6019      	str	r1, [r3, #0]
 8001df0:	f8c4 2180 	str.w	r2, [r4, #384]	; 0x180
 8001df4:	e701      	b.n	8001bfa <main+0x416>
 8001df6:	bf00      	nop
 8001df8:	200022e4 	andcs	r2, r0, r4, ror #5
 8001dfc:	40023800 	andmi	r3, r2, r0, lsl #16
 8001e00:	40006400 	andmi	r6, r0, r0, lsl #8
 8001e04:	200022e8 	andcs	r2, r0, r8, ror #5
 8001e08:	20001290 	mulcs	r0, r0, r2
 8001e0c:	20001294 	mulcs	r0, r4, r2
 8001e10:	20000610 	andcs	r0, r0, r0, lsl r6
 8001e14:	40010000 	andmi	r0, r1, r0
 8001e18:	20000630 	andcs	r0, r0, r0, lsr r6
 8001e1c:	20000618 	andcs	r0, r0, r8, lsl r6
 8001e20:	000f4240 	andeq	r4, pc, r0, asr #4
 8001e24:	20000614 	andcs	r0, r0, r4, lsl r6
 8001e28:	20000620 	andcs	r0, r0, r0, lsr #12
 8001e2c:	20000629 	andcs	r0, r0, r9, lsr #12
 8001e30:	20000608 	andcs	r0, r0, r8, lsl #12
 8001e34:	20000000 	andcs	r0, r0, r0
 8001e38:	20000068 	andcs	r0, r0, r8, rrx
 8001e3c:	20000638 	andcs	r0, r0, r8, lsr r6
 8001e40:	0aaaaaaa 	beq	6aac8f0 <__Stack_Size+0x6aac4f0>
 8001e44:	e000e100 	and	lr, r0, r0, lsl #2
 8001e48:	2000048c 	andcs	r0, r0, ip, lsl #9
 8001e4c:	f8d9 2000 	ldr.w	r2, [r9]
 8001e50:	4bb6      	ldr	r3, [pc, #728]	; (800212c <main+0x948>)
 8001e52:	eb03 1302 	add.w	r3, r3, r2, lsl #4
 8001e56:	cb0f      	ldmia	r3, {r0, r1, r2, r3}
 8001e58:	ac10      	add	r4, sp, #64	; 0x40
 8001e5a:	e884 000f 	stmia.w	r4, {r0, r1, r2, r3}
 8001e5e:	f8d9 3000 	ldr.w	r3, [r9]
 8001e62:	3301      	adds	r3, #1
 8001e64:	f8c9 3000 	str.w	r3, [r9]
 8001e68:	f8d9 3000 	ldr.w	r3, [r9]
 8001e6c:	2b3f      	cmp	r3, #63	; 0x3f
 8001e6e:	bfc4      	itt	gt
 8001e70:	2300      	movgt	r3, #0
 8001e72:	f8c9 3000 	strgt.w	r3, [r9]
 8001e76:	b662      	cpsie	i
 8001e78:	9d10      	ldr	r5, [sp, #64]	; 0x40
 8001e7a:	f3c5 12c0 	ubfx	r2, r5, #7, #1
 8001e7e:	2a00      	cmp	r2, #0
 8001e80:	f000 80af 	beq.w	8001fe2 <main+0x7fe>
 8001e84:	f3c5 3bc0 	ubfx	fp, r5, #15, #1
 8001e88:	f3c5 2406 	ubfx	r4, r5, #8, #7
 8001e8c:	2d00      	cmp	r5, #0
 8001e8e:	f6bf aefc 	bge.w	8001c8a <main+0x4a6>
 8001e92:	f015 43c0 	ands.w	r3, r5, #1610612736	; 0x60000000
 8001e96:	9305      	str	r3, [sp, #20]
 8001e98:	f47f aef7 	bne.w	8001c8a <main+0x4a6>
 8001e9c:	f89d 304c 	ldrb.w	r3, [sp, #76]	; 0x4c
 8001ea0:	2b00      	cmp	r3, #0
 8001ea2:	f43f aef2 	beq.w	8001c8a <main+0x4a6>
 8001ea6:	f1bb 0f02 	cmp.w	fp, #2
 8001eaa:	f8df a288 	ldr.w	sl, [pc, #648]	; 8002134 <main+0x950>
 8001eae:	d004      	beq.n	8001eba <main+0x6d6>
 8001eb0:	f89a 1000 	ldrb.w	r1, [sl]
 8001eb4:	42a1      	cmp	r1, r4
 8001eb6:	f47f aee8 	bne.w	8001c8a <main+0x4a6>
 8001eba:	f005 017f 	and.w	r1, r5, #127	; 0x7f
 8001ebe:	9106      	str	r1, [sp, #24]
 8001ec0:	2a00      	cmp	r2, #0
 8001ec2:	f000 8092 	beq.w	8001fea <main+0x806>
 8001ec6:	f3c5 4807 	ubfx	r8, r5, #16, #8
 8001eca:	4a99      	ldr	r2, [pc, #612]	; (8002130 <main+0x94c>)
 8001ecc:	6811      	ldr	r1, [r2, #0]
 8001ece:	6852      	ldr	r2, [r2, #4]
 8001ed0:	9204      	str	r2, [sp, #16]
 8001ed2:	0664      	lsls	r4, r4, #25
 8001ed4:	9a06      	ldr	r2, [sp, #24]
 8001ed6:	9103      	str	r1, [sp, #12]
 8001ed8:	ea44 440b 	orr.w	r4, r4, fp, lsl #16
 8001edc:	ea44 4482 	orr.w	r4, r4, r2, lsl #18
 8001ee0:	aa1c      	add	r2, sp, #112	; 0x70
 8001ee2:	4413      	add	r3, r2
 8001ee4:	ea44 0408 	orr.w	r4, r4, r8
 8001ee8:	f813 6c2d 	ldrb.w	r6, [r3, #-45]
 8001eec:	09f3      	lsrs	r3, r6, #7
 8001eee:	9307      	str	r3, [sp, #28]
 8001ef0:	f000 8094 	beq.w	800201c <main+0x838>
 8001ef4:	2200      	movs	r2, #0
 8001ef6:	2300      	movs	r3, #0
 8001ef8:	e9cd 2314 	strd	r2, r3, [sp, #80]	; 0x50
 8001efc:	9b06      	ldr	r3, [sp, #24]
 8001efe:	9300      	str	r3, [sp, #0]
 8001f00:	f8da 7004 	ldr.w	r7, [sl, #4]
 8001f04:	488b      	ldr	r0, [pc, #556]	; (8002134 <main+0x950>)
 8001f06:	465b      	mov	r3, fp
 8001f08:	4642      	mov	r2, r8
 8001f0a:	a914      	add	r1, sp, #80	; 0x50
 8001f0c:	47b8      	blx	r7
 8001f0e:	2800      	cmp	r0, #0
 8001f10:	f43f aebb 	beq.w	8001c8a <main+0x4a6>
 8001f14:	f8da 7018 	ldr.w	r7, [sl, #24]
 8001f18:	2f00      	cmp	r7, #0
 8001f1a:	d16d      	bne.n	8001ff8 <main+0x814>
 8001f1c:	4620      	mov	r0, r4
 8001f1e:	f7fe fd19 	bl	8000954 <createRxState.constprop.9>
 8001f22:	4607      	mov	r7, r0
 8001f24:	2800      	cmp	r0, #0
 8001f26:	f43f aeb0 	beq.w	8001c8a <main+0x4a6>
 8001f2a:	f8ca 0018 	str.w	r0, [sl, #24]
 8001f2e:	e9dd 3a14 	ldrd	r3, sl, [sp, #80]	; 0x50
 8001f32:	2400      	movs	r4, #0
 8001f34:	f64f 70ff 	movw	r0, #65535	; 0xffff
 8001f38:	f1c4 0c20 	rsb	ip, r4, #32
 8001f3c:	fa23 f104 	lsr.w	r1, r3, r4
 8001f40:	f1a4 0220 	sub.w	r2, r4, #32
 8001f44:	fa0a fc0c 	lsl.w	ip, sl, ip
 8001f48:	ea41 010c 	orr.w	r1, r1, ip
 8001f4c:	fa2a f202 	lsr.w	r2, sl, r2
 8001f50:	4311      	orrs	r1, r2
 8001f52:	b2c9      	uxtb	r1, r1
 8001f54:	3408      	adds	r4, #8
 8001f56:	930e      	str	r3, [sp, #56]	; 0x38
 8001f58:	f7fe fa32 	bl	80003c0 <crcAddByte>
 8001f5c:	2c40      	cmp	r4, #64	; 0x40
 8001f5e:	9b0e      	ldr	r3, [sp, #56]	; 0x38
 8001f60:	d1ea      	bne.n	8001f38 <main+0x754>
 8001f62:	82b8      	strh	r0, [r7, #20]
 8001f64:	7dfb      	ldrb	r3, [r7, #23]
 8001f66:	f006 041f 	and.w	r4, r6, #31
 8001f6a:	f3c3 0384 	ubfx	r3, r3, #2, #5
 8001f6e:	1ae3      	subs	r3, r4, r3
 8001f70:	b29b      	uxth	r3, r3
 8001f72:	fa0f fc83 	sxth.w	ip, r3
 8001f76:	f1bc 0f00 	cmp.w	ip, #0
 8001f7a:	e9d7 0102 	ldrd	r0, r1, [r7, #8]
 8001f7e:	bfbc      	itt	lt
 8001f80:	3320      	addlt	r3, #32
 8001f82:	fa0f fc83 	sxthlt.w	ip, r3
 8001f86:	f3c5 6304 	ubfx	r3, r5, #24, #5
 8001f8a:	930e      	str	r3, [sp, #56]	; 0x38
 8001f8c:	ea50 0301 	orrs.w	r3, r0, r1
 8001f90:	d014      	beq.n	8001fbc <main+0x7d8>
 8001f92:	9b03      	ldr	r3, [sp, #12]
 8001f94:	1a1b      	subs	r3, r3, r0
 8001f96:	9308      	str	r3, [sp, #32]
 8001f98:	9b04      	ldr	r3, [sp, #16]
 8001f9a:	4867      	ldr	r0, [pc, #412]	; (8002138 <main+0x954>)
 8001f9c:	eb63 0301 	sbc.w	r3, r3, r1
 8001fa0:	9309      	str	r3, [sp, #36]	; 0x24
 8001fa2:	e9dd 2308 	ldrd	r2, r3, [sp, #32]
 8001fa6:	2100      	movs	r1, #0
 8001fa8:	4299      	cmp	r1, r3
 8001faa:	bf08      	it	eq
 8001fac:	4290      	cmpeq	r0, r2
 8001fae:	d305      	bcc.n	8001fbc <main+0x7d8>
 8001fb0:	9b07      	ldr	r3, [sp, #28]
 8001fb2:	2b00      	cmp	r3, #0
 8001fb4:	d070      	beq.n	8002098 <main+0x8b4>
 8001fb6:	f1bc 0f01 	cmp.w	ip, #1
 8001fba:	dd39      	ble.n	8002030 <main+0x84c>
 8001fbc:	7dfb      	ldrb	r3, [r7, #23]
 8001fbe:	f366 0386 	bfi	r3, r6, #2, #5
 8001fc2:	f36f 13c7 	bfc	r3, #7, #1
 8001fc6:	75fb      	strb	r3, [r7, #23]
 8001fc8:	4638      	mov	r0, r7
 8001fca:	f7fe f90d 	bl	80001e8 <releaseStatePayload.constprop.15>
 8001fce:	9b07      	ldr	r3, [sp, #28]
 8001fd0:	bb73      	cbnz	r3, 8002030 <main+0x84c>
 8001fd2:	7dfb      	ldrb	r3, [r7, #23]
 8001fd4:	f3c3 0284 	ubfx	r2, r3, #2, #5
 8001fd8:	3201      	adds	r2, #1
 8001fda:	f362 0386 	bfi	r3, r2, #2, #5
 8001fde:	75fb      	strb	r3, [r7, #23]
 8001fe0:	e653      	b.n	8001c8a <main+0x4a6>
 8001fe2:	f04f 0b02 	mov.w	fp, #2
 8001fe6:	4614      	mov	r4, r2
 8001fe8:	e750      	b.n	8001e8c <main+0x6a8>
 8001fea:	f3c5 280f 	ubfx	r8, r5, #8, #16
 8001fee:	066a      	lsls	r2, r5, #25
 8001ff0:	bf08      	it	eq
 8001ff2:	f008 0803 	andeq.w	r8, r8, #3
 8001ff6:	e768      	b.n	8001eca <main+0x6e6>
 8001ff8:	693b      	ldr	r3, [r7, #16]
 8001ffa:	429c      	cmp	r4, r3
 8001ffc:	d097      	beq.n	8001f2e <main+0x74a>
 8001ffe:	683f      	ldr	r7, [r7, #0]
 8002000:	2f00      	cmp	r7, #0
 8002002:	d1f9      	bne.n	8001ff8 <main+0x814>
 8002004:	4620      	mov	r0, r4
 8002006:	f7fe fca5 	bl	8000954 <createRxState.constprop.9>
 800200a:	4607      	mov	r7, r0
 800200c:	2800      	cmp	r0, #0
 800200e:	f43f ae3c 	beq.w	8001c8a <main+0x4a6>
 8002012:	4b48      	ldr	r3, [pc, #288]	; (8002134 <main+0x950>)
 8002014:	699a      	ldr	r2, [r3, #24]
 8002016:	603a      	str	r2, [r7, #0]
 8002018:	619f      	str	r7, [r3, #24]
 800201a:	e788      	b.n	8001f2e <main+0x74a>
 800201c:	f8da 7018 	ldr.w	r7, [sl, #24]
 8002020:	2f00      	cmp	r7, #0
 8002022:	f43f ae32 	beq.w	8001c8a <main+0x4a6>
 8002026:	693b      	ldr	r3, [r7, #16]
 8002028:	429c      	cmp	r4, r3
 800202a:	d09b      	beq.n	8001f64 <main+0x780>
 800202c:	683f      	ldr	r7, [r7, #0]
 800202e:	e7f7      	b.n	8002020 <main+0x83c>
 8002030:	09b3      	lsrs	r3, r6, #6
 8002032:	2b02      	cmp	r3, #2
 8002034:	d030      	beq.n	8002098 <main+0x8b4>
 8002036:	9b03      	ldr	r3, [sp, #12]
 8002038:	60bb      	str	r3, [r7, #8]
 800203a:	9b04      	ldr	r3, [sp, #16]
 800203c:	60fb      	str	r3, [r7, #12]
 800203e:	2100      	movs	r1, #0
 8002040:	2214      	movs	r2, #20
 8002042:	a817      	add	r0, sp, #92	; 0x5c
 8002044:	f000 fc20 	bl	8002888 <memset>
 8002048:	9b03      	ldr	r3, [sp, #12]
 800204a:	9314      	str	r3, [sp, #80]	; 0x50
 800204c:	9b04      	ldr	r3, [sp, #16]
 800204e:	9315      	str	r3, [sp, #84]	; 0x54
 8002050:	ab11      	add	r3, sp, #68	; 0x44
 8002052:	9316      	str	r3, [sp, #88]	; 0x58
 8002054:	f89d 304c 	ldrb.w	r3, [sp, #76]	; 0x4c
 8002058:	4836      	ldr	r0, [pc, #216]	; (8002134 <main+0x950>)
 800205a:	f8ad 8066 	strh.w	r8, [sp, #102]	; 0x66
 800205e:	3b01      	subs	r3, #1
 8002060:	b2db      	uxtb	r3, r3
 8002062:	f8ad 3064 	strh.w	r3, [sp, #100]	; 0x64
 8002066:	9b0e      	ldr	r3, [sp, #56]	; 0x38
 8002068:	f88d 306a 	strb.w	r3, [sp, #106]	; 0x6a
 800206c:	9b06      	ldr	r3, [sp, #24]
 800206e:	f88d 306b 	strb.w	r3, [sp, #107]	; 0x6b
 8002072:	f88d b068 	strb.w	fp, [sp, #104]	; 0x68
 8002076:	f88d 4069 	strb.w	r4, [sp, #105]	; 0x69
 800207a:	6883      	ldr	r3, [r0, #8]
 800207c:	a914      	add	r1, sp, #80	; 0x50
 800207e:	4798      	blx	r3
 8002080:	7dfb      	ldrb	r3, [r7, #23]
 8002082:	f3c3 0284 	ubfx	r2, r3, #2, #5
 8002086:	3201      	adds	r2, #1
 8002088:	f362 0386 	bfi	r3, r2, #2, #5
 800208c:	75fb      	strb	r3, [r7, #23]
 800208e:	8afb      	ldrh	r3, [r7, #22]
 8002090:	f403 43f8 	and.w	r3, r3, #31744	; 0x7c00
 8002094:	82fb      	strh	r3, [r7, #22]
 8002096:	e5f8      	b.n	8001c8a <main+0x4a6>
 8002098:	7dfb      	ldrb	r3, [r7, #23]
 800209a:	f3c6 1240 	ubfx	r2, r6, #5, #1
 800209e:	ebb2 1fd3 	cmp.w	r2, r3, lsr #7
 80020a2:	f47f adf2 	bne.w	8001c8a <main+0x4a6>
 80020a6:	f3c3 0384 	ubfx	r3, r3, #2, #5
 80020aa:	42a3      	cmp	r3, r4
 80020ac:	f47f aded 	bne.w	8001c8a <main+0x4a6>
 80020b0:	9b07      	ldr	r3, [sp, #28]
 80020b2:	f89d 204c 	ldrb.w	r2, [sp, #76]	; 0x4c
 80020b6:	09b6      	lsrs	r6, r6, #6
 80020b8:	b34b      	cbz	r3, 800210e <main+0x92a>
 80020ba:	2e02      	cmp	r6, #2
 80020bc:	d13e      	bne.n	800213c <main+0x958>
 80020be:	2a03      	cmp	r2, #3
 80020c0:	f67f ade3 	bls.w	8001c8a <main+0x4a6>
 80020c4:	9b03      	ldr	r3, [sp, #12]
 80020c6:	60bb      	str	r3, [r7, #8]
 80020c8:	3a03      	subs	r2, #3
 80020ca:	9b04      	ldr	r3, [sp, #16]
 80020cc:	60fb      	str	r3, [r7, #12]
 80020ce:	b2d2      	uxtb	r2, r2
 80020d0:	f10d 0146 	add.w	r1, sp, #70	; 0x46
 80020d4:	4638      	mov	r0, r7
 80020d6:	f7fe f8a3 	bl	8000220 <bufferBlockPushBytes.constprop.10>
 80020da:	2800      	cmp	r0, #0
 80020dc:	da03      	bge.n	80020e6 <main+0x902>
 80020de:	4638      	mov	r0, r7
 80020e0:	f7fe f882 	bl	80001e8 <releaseStatePayload.constprop.15>
 80020e4:	e7cc      	b.n	8002080 <main+0x89c>
 80020e6:	f89d 204c 	ldrb.w	r2, [sp, #76]	; 0x4c
 80020ea:	f8bd 3044 	ldrh.w	r3, [sp, #68]	; 0x44
 80020ee:	833b      	strh	r3, [r7, #24]
 80020f0:	3a03      	subs	r2, #3
 80020f2:	b2d2      	uxtb	r2, r2
 80020f4:	f10d 0146 	add.w	r1, sp, #70	; 0x46
 80020f8:	8ab8      	ldrh	r0, [r7, #20]
 80020fa:	f7fe f972 	bl	80003e2 <crcAdd>
 80020fe:	7dfb      	ldrb	r3, [r7, #23]
 8002100:	82b8      	strh	r0, [r7, #20]
 8002102:	43da      	mvns	r2, r3
 8002104:	f3c2 12c0 	ubfx	r2, r2, #7, #1
 8002108:	f362 13c7 	bfi	r3, r2, #7, #1
 800210c:	e767      	b.n	8001fde <main+0x7fa>
 800210e:	b9ae      	cbnz	r6, 800213c <main+0x958>
 8002110:	3a01      	subs	r2, #1
 8002112:	b2d2      	uxtb	r2, r2
 8002114:	a911      	add	r1, sp, #68	; 0x44
 8002116:	4638      	mov	r0, r7
 8002118:	f7fe f882 	bl	8000220 <bufferBlockPushBytes.constprop.10>
 800211c:	2800      	cmp	r0, #0
 800211e:	dbde      	blt.n	80020de <main+0x8fa>
 8002120:	f89d 204c 	ldrb.w	r2, [sp, #76]	; 0x4c
 8002124:	3a01      	subs	r2, #1
 8002126:	b2d2      	uxtb	r2, r2
 8002128:	a911      	add	r1, sp, #68	; 0x44
 800212a:	e7e5      	b.n	80020f8 <main+0x914>
 800212c:	20000640 	andcs	r0, r0, r0, asr #12
 8002130:	20000630 	andcs	r0, r0, r0, lsr r6
 8002134:	20000068 	andcs	r0, r0, r8, rrx
 8002138:	001e8480 	andseq	r8, lr, r0, lsl #9
 800213c:	8af9      	ldrh	r1, [r7, #22]
 800213e:	f8d7 c004 	ldr.w	ip, [r7, #4]
 8002142:	f3c1 0109 	ubfx	r1, r1, #0, #10
 8002146:	1e50      	subs	r0, r2, #1
 8002148:	2905      	cmp	r1, #5
 800214a:	b2c0      	uxtb	r0, r0
 800214c:	d841      	bhi.n	80021d2 <main+0x9ee>
 800214e:	460d      	mov	r5, r1
 8002150:	ae11      	add	r6, sp, #68	; 0x44
 8002152:	2300      	movs	r3, #0
 8002154:	f107 0e1a 	add.w	lr, r7, #26
 8002158:	4283      	cmp	r3, r0
 800215a:	d208      	bcs.n	800216e <main+0x98a>
 800215c:	f816 ab01 	ldrb.w	sl, [r6], #1
 8002160:	f80e a005 	strb.w	sl, [lr, r5]
 8002164:	3501      	adds	r5, #1
 8002166:	3301      	adds	r3, #1
 8002168:	2d06      	cmp	r5, #6
 800216a:	b2db      	uxtb	r3, r3
 800216c:	d1f4      	bne.n	8002158 <main+0x974>
 800216e:	9d03      	ldr	r5, [sp, #12]
 8002170:	9514      	str	r5, [sp, #80]	; 0x50
 8002172:	9d04      	ldr	r5, [sp, #16]
 8002174:	9515      	str	r5, [sp, #84]	; 0x54
 8002176:	4298      	cmp	r0, r3
 8002178:	f107 051a 	add.w	r5, r7, #26
 800217c:	e9cd 5c16 	strd	r5, ip, [sp, #88]	; 0x58
 8002180:	bf83      	ittte	hi
 8002182:	ad1c      	addhi	r5, sp, #112	; 0x70
 8002184:	195b      	addhi	r3, r3, r5
 8002186:	3b2c      	subhi	r3, #44	; 0x2c
 8002188:	2300      	movls	r3, #0
 800218a:	9318      	str	r3, [sp, #96]	; 0x60
 800218c:	9b0e      	ldr	r3, [sp, #56]	; 0x38
 800218e:	f88d 306a 	strb.w	r3, [sp, #106]	; 0x6a
 8002192:	9b06      	ldr	r3, [sp, #24]
 8002194:	f88d 306b 	strb.w	r3, [sp, #107]	; 0x6b
 8002198:	4401      	add	r1, r0
 800219a:	f88d b068 	strb.w	fp, [sp, #104]	; 0x68
 800219e:	f88d 4069 	strb.w	r4, [sp, #105]	; 0x69
 80021a2:	2300      	movs	r3, #0
 80021a4:	f8ad 1064 	strh.w	r1, [sp, #100]	; 0x64
 80021a8:	f8ad 8066 	strh.w	r8, [sp, #102]	; 0x66
 80021ac:	8ab8      	ldrh	r0, [r7, #20]
 80021ae:	607b      	str	r3, [r7, #4]
 80021b0:	3a01      	subs	r2, #1
 80021b2:	a911      	add	r1, sp, #68	; 0x44
 80021b4:	f7fe f915 	bl	80003e2 <crcAdd>
 80021b8:	8b3b      	ldrh	r3, [r7, #24]
 80021ba:	82b8      	strh	r0, [r7, #20]
 80021bc:	4283      	cmp	r3, r0
 80021be:	d103      	bne.n	80021c8 <main+0x9e4>
 80021c0:	485c      	ldr	r0, [pc, #368]	; (8002334 <main+0xb50>)
 80021c2:	a914      	add	r1, sp, #80	; 0x50
 80021c4:	6883      	ldr	r3, [r0, #8]
 80021c6:	4798      	blx	r3
 80021c8:	a914      	add	r1, sp, #80	; 0x50
 80021ca:	485a      	ldr	r0, [pc, #360]	; (8002334 <main+0xb50>)
 80021cc:	f7fe f94e 	bl	800046c <canardReleaseRxTransferPayload>
 80021d0:	e756      	b.n	8002080 <main+0x89c>
 80021d2:	f1bc 0f00 	cmp.w	ip, #0
 80021d6:	d11f      	bne.n	8002218 <main+0xa34>
 80021d8:	4663      	mov	r3, ip
 80021da:	e7c8      	b.n	800216e <main+0x98a>
 80021dc:	351c      	adds	r5, #28
 80021de:	461e      	mov	r6, r3
 80021e0:	6833      	ldr	r3, [r6, #0]
 80021e2:	2b00      	cmp	r3, #0
 80021e4:	d1fa      	bne.n	80021dc <main+0x9f8>
 80021e6:	1b4d      	subs	r5, r1, r5
 80021e8:	1d2b      	adds	r3, r5, #4
 80021ea:	18f3      	adds	r3, r6, r3
 80021ec:	f10d 0a44 	add.w	sl, sp, #68	; 0x44
 80021f0:	9307      	str	r3, [sp, #28]
 80021f2:	9e05      	ldr	r6, [sp, #20]
 80021f4:	f89d e014 	ldrb.w	lr, [sp, #20]
 80021f8:	19ae      	adds	r6, r5, r6
 80021fa:	2e1b      	cmp	r6, #27
 80021fc:	4673      	mov	r3, lr
 80021fe:	d8b6      	bhi.n	800216e <main+0x98a>
 8002200:	4570      	cmp	r0, lr
 8002202:	d9b4      	bls.n	800216e <main+0x98a>
 8002204:	9e07      	ldr	r6, [sp, #28]
 8002206:	f81a 3b01 	ldrb.w	r3, [sl], #1
 800220a:	f806 3b01 	strb.w	r3, [r6], #1
 800220e:	9b05      	ldr	r3, [sp, #20]
 8002210:	9607      	str	r6, [sp, #28]
 8002212:	3301      	adds	r3, #1
 8002214:	9305      	str	r3, [sp, #20]
 8002216:	e7ec      	b.n	80021f2 <main+0xa0e>
 8002218:	4666      	mov	r6, ip
 800221a:	2506      	movs	r5, #6
 800221c:	e7e0      	b.n	80021e0 <main+0x9fc>
 800221e:	e9d4 3202 	ldrd	r3, r2, [r4, #8]
 8002222:	1af3      	subs	r3, r6, r3
 8002224:	930a      	str	r3, [sp, #40]	; 0x28
 8002226:	eb67 0302 	sbc.w	r3, r7, r2
 800222a:	930b      	str	r3, [sp, #44]	; 0x2c
 800222c:	e9dd 010a 	ldrd	r0, r1, [sp, #40]	; 0x28
 8002230:	4a41      	ldr	r2, [pc, #260]	; (8002338 <main+0xb54>)
 8002232:	2300      	movs	r3, #0
 8002234:	428b      	cmp	r3, r1
 8002236:	bf08      	it	eq
 8002238:	4282      	cmpeq	r2, r0
 800223a:	d229      	bcs.n	8002290 <main+0xaac>
 800223c:	f8d8 3018 	ldr.w	r3, [r8, #24]
 8002240:	429c      	cmp	r4, r3
 8002242:	4620      	mov	r0, r4
 8002244:	d114      	bne.n	8002270 <main+0xa8c>
 8002246:	f7fd ffcf 	bl	80001e8 <releaseStatePayload.constprop.15>
 800224a:	f8d8 3018 	ldr.w	r3, [r8, #24]
 800224e:	f8d3 9000 	ldr.w	r9, [r3]
 8002252:	f8d8 300c 	ldr.w	r3, [r8, #12]
 8002256:	f8c8 9018 	str.w	r9, [r8, #24]
 800225a:	6023      	str	r3, [r4, #0]
 800225c:	f8b8 3012 	ldrh.w	r3, [r8, #18]
 8002260:	f8c8 400c 	str.w	r4, [r8, #12]
 8002264:	3b01      	subs	r3, #1
 8002266:	f8a8 3012 	strh.w	r3, [r8, #18]
 800226a:	464b      	mov	r3, r9
 800226c:	461c      	mov	r4, r3
 800226e:	e532      	b.n	8001cd6 <main+0x4f2>
 8002270:	f7fd ffba 	bl	80001e8 <releaseStatePayload.constprop.15>
 8002274:	6823      	ldr	r3, [r4, #0]
 8002276:	f8d8 200c 	ldr.w	r2, [r8, #12]
 800227a:	f8c9 3000 	str.w	r3, [r9]
 800227e:	6022      	str	r2, [r4, #0]
 8002280:	f8b8 2012 	ldrh.w	r2, [r8, #18]
 8002284:	f8c8 400c 	str.w	r4, [r8, #12]
 8002288:	3a01      	subs	r2, #1
 800228a:	f8a8 2012 	strh.w	r2, [r8, #18]
 800228e:	e7ed      	b.n	800226c <main+0xa88>
 8002290:	6823      	ldr	r3, [r4, #0]
 8002292:	46a1      	mov	r9, r4
 8002294:	e7ea      	b.n	800226c <main+0xa88>
 8002296:	f100 0a07 	add.w	sl, r0, #7
 800229a:	ea4f 0ada 	mov.w	sl, sl, lsr #3
 800229e:	fa1f f98a 	uxth.w	r9, sl
 80022a2:	4d26      	ldr	r5, [pc, #152]	; (800233c <main+0xb58>)
 80022a4:	f1b9 0f07 	cmp.w	r9, #7
 80022a8:	ea45 0503 	orr.w	r5, r5, r3
 80022ac:	d930      	bls.n	8002310 <main+0xb2c>
 80022ae:	f8df b0a0 	ldr.w	fp, [pc, #160]	; 8002350 <main+0xb6c>
 80022b2:	f64f 73ff 	movw	r3, #65535	; 0xffff
 80022b6:	4922      	ldr	r1, [pc, #136]	; (8002340 <main+0xb5c>)
 80022b8:	f1c4 0020 	rsb	r0, r4, #32
 80022bc:	f1a4 0220 	sub.w	r2, r4, #32
 80022c0:	40e1      	lsrs	r1, r4
 80022c2:	fa0b f000 	lsl.w	r0, fp, r0
 80022c6:	4301      	orrs	r1, r0
 80022c8:	fa2b f202 	lsr.w	r2, fp, r2
 80022cc:	4311      	orrs	r1, r2
 80022ce:	4618      	mov	r0, r3
 80022d0:	b2c9      	uxtb	r1, r1
 80022d2:	f7fe f875 	bl	80003c0 <crcAddByte>
 80022d6:	3408      	adds	r4, #8
 80022d8:	2c40      	cmp	r4, #64	; 0x40
 80022da:	4603      	mov	r3, r0
 80022dc:	d1eb      	bne.n	80022b6 <main+0xad2>
 80022de:	fa1f f28a 	uxth.w	r2, sl
 80022e2:	4918      	ldr	r1, [pc, #96]	; (8002344 <main+0xb60>)
 80022e4:	f7fe f87d 	bl	80003e2 <crcAdd>
 80022e8:	4602      	mov	r2, r0
 80022ea:	4c17      	ldr	r4, [pc, #92]	; (8002348 <main+0xb64>)
 80022ec:	4b15      	ldr	r3, [pc, #84]	; (8002344 <main+0xb60>)
 80022ee:	f8cd 9000 	str.w	r9, [sp]
 80022f2:	4621      	mov	r1, r4
 80022f4:	4628      	mov	r0, r5
 80022f6:	f7fe fb49 	bl	800098c <enqueueTxFrames.constprop.22>
 80022fa:	7823      	ldrb	r3, [r4, #0]
 80022fc:	3301      	adds	r3, #1
 80022fe:	b2db      	uxtb	r3, r3
 8002300:	2b1f      	cmp	r3, #31
 8002302:	bf88      	it	hi
 8002304:	2300      	movhi	r3, #0
 8002306:	2800      	cmp	r0, #0
 8002308:	7023      	strb	r3, [r4, #0]
 800230a:	f73f ad06 	bgt.w	8001d1a <main+0x536>
 800230e:	e501      	b.n	8001d14 <main+0x530>
 8002310:	f64f 72ff 	movw	r2, #65535	; 0xffff
 8002314:	e7e9      	b.n	80022ea <main+0xb06>
 8002316:	4b08      	ldr	r3, [pc, #32]	; (8002338 <main+0xb54>)
 8002318:	2400      	movs	r4, #0
 800231a:	42bc      	cmp	r4, r7
 800231c:	bf08      	it	eq
 800231e:	42b3      	cmpeq	r3, r6
 8002320:	f4bf aca0 	bcs.w	8001c64 <main+0x480>
 8002324:	4b09      	ldr	r3, [pc, #36]	; (800234c <main+0xb68>)
 8002326:	681b      	ldr	r3, [r3, #0]
 8002328:	3301      	adds	r3, #1
 800232a:	f43f ac9b 	beq.w	8001c64 <main+0x480>
 800232e:	f7fe f8bf 	bl	80004b0 <mcual_loader_boot.part.0>
 8002332:	bf00      	nop
 8002334:	20000068 	andcs	r0, r0, r8, rrx
 8002338:	001e8480 	andseq	r8, lr, r0, lsl #9
 800233c:	18015500 	stmdane	r1, {r8, sl, ip, lr}
 8002340:	c1a7c6f1 	strdgt	ip, [r7, r1]!
 8002344:	2000048d 	andcs	r0, r0, sp, lsl #9
 8002348:	20001298 	mulcs	r0, r8, r2
 800234c:	08004000 	stmdaeq	r0, {lr}
 8002350:	0f0868d0 	svceq	0x000868d0

08002354 <CAN1_SCE_IRQHandler>:
 8002354:	4770      	bx	lr
	...

08002358 <CAN1_RX1_IRQHandler>:
 8002358:	b508      	push	{r3, lr}
 800235a:	4803      	ldr	r0, [pc, #12]	; (8002368 <CAN1_RX1_IRQHandler+0x10>)
 800235c:	f7fe f916 	bl	800058c <mcual_can_rcev_frame>
 8002360:	4b02      	ldr	r3, [pc, #8]	; (800236c <CAN1_RX1_IRQHandler+0x14>)
 8002362:	2238      	movs	r2, #56	; 0x38
 8002364:	611a      	str	r2, [r3, #16]
 8002366:	bd08      	pop	{r3, pc}
 8002368:	400065c0 	andmi	r6, r0, r0, asr #11
 800236c:	40006400 	andmi	r6, r0, r0, lsl #8

08002370 <CAN1_RX0_IRQHandler>:
 8002370:	b508      	push	{r3, lr}
 8002372:	4803      	ldr	r0, [pc, #12]	; (8002380 <CAN1_RX0_IRQHandler+0x10>)
 8002374:	f7fe f90a 	bl	800058c <mcual_can_rcev_frame>
 8002378:	4b02      	ldr	r3, [pc, #8]	; (8002384 <CAN1_RX0_IRQHandler+0x14>)
 800237a:	2238      	movs	r2, #56	; 0x38
 800237c:	60da      	str	r2, [r3, #12]
 800237e:	bd08      	pop	{r3, pc}
 8002380:	400065b0 			; <UNDEFINED> instruction: 0x400065b0
 8002384:	40006400 	andmi	r6, r0, r0, lsl #8

08002388 <CAN1_TX_IRQHandler>:
 8002388:	4b4c      	ldr	r3, [pc, #304]	; (80024bc <CAN1_TX_IRQHandler+0x134>)
 800238a:	681a      	ldr	r2, [r3, #0]
 800238c:	4b4c      	ldr	r3, [pc, #304]	; (80024c0 <CAN1_TX_IRQHandler+0x138>)
 800238e:	e92d 41f0 	stmdb	sp!, {r4, r5, r6, r7, r8, lr}
 8002392:	eb03 1302 	add.w	r3, r3, r2, lsl #4
 8002396:	cb0f      	ldmia	r3, {r0, r1, r2, r3}
 8002398:	b086      	sub	sp, #24
 800239a:	ad02      	add	r5, sp, #8
 800239c:	e885 000f 	stmia.w	r5, {r0, r1, r2, r3}
 80023a0:	4b48      	ldr	r3, [pc, #288]	; (80024c4 <CAN1_TX_IRQHandler+0x13c>)
 80023a2:	689a      	ldr	r2, [r3, #8]
 80023a4:	f002 52e0 	and.w	r2, r2, #469762048	; 0x1c000000
 80023a8:	f1b2 5fe0 	cmp.w	r2, #469762048	; 0x1c000000
 80023ac:	d01a      	beq.n	80023e4 <CAN1_TX_IRQHandler+0x5c>
 80023ae:	689a      	ldr	r2, [r3, #8]
 80023b0:	f3c2 6280 	ubfx	r2, r2, #26, #1
 80023b4:	f88d 2004 	strb.w	r2, [sp, #4]
 80023b8:	689a      	ldr	r2, [r3, #8]
 80023ba:	689b      	ldr	r3, [r3, #8]
 80023bc:	f3c2 62c0 	ubfx	r2, r2, #27, #1
 80023c0:	f3c3 7300 	ubfx	r3, r3, #28, #1
 80023c4:	f88d 2005 	strb.w	r2, [sp, #5]
 80023c8:	f88d 3006 	strb.w	r3, [sp, #6]
 80023cc:	4b3d      	ldr	r3, [pc, #244]	; (80024c4 <CAN1_TX_IRQHandler+0x13c>)
 80023ce:	689a      	ldr	r2, [r3, #8]
 80023d0:	0150      	lsls	r0, r2, #5
 80023d2:	d52a      	bpl.n	800242a <CAN1_TX_IRQHandler+0xa2>
 80023d4:	4a3c      	ldr	r2, [pc, #240]	; (80024c8 <CAN1_TX_IRQHandler+0x140>)
 80023d6:	7812      	ldrb	r2, [r2, #0]
 80023d8:	b142      	cbz	r2, 80023ec <CAN1_TX_IRQHandler+0x64>
 80023da:	4629      	mov	r1, r5
 80023dc:	2000      	movs	r0, #0
 80023de:	f7fe f881 	bl	80004e4 <mcual_can_add_in_mailbox>
 80023e2:	e01f      	b.n	8002424 <CAN1_TX_IRQHandler+0x9c>
 80023e4:	4b38      	ldr	r3, [pc, #224]	; (80024c8 <CAN1_TX_IRQHandler+0x140>)
 80023e6:	2201      	movs	r2, #1
 80023e8:	701a      	strb	r2, [r3, #0]
 80023ea:	e7ef      	b.n	80023cc <CAN1_TX_IRQHandler+0x44>
 80023ec:	f89d 2005 	ldrb.w	r2, [sp, #5]
 80023f0:	9c02      	ldr	r4, [sp, #8]
 80023f2:	b942      	cbnz	r2, 8002406 <CAN1_TX_IRQHandler+0x7e>
 80023f4:	f8d3 0190 	ldr.w	r0, [r3, #400]	; 0x190
 80023f8:	f7fe f8bc 	bl	8000574 <convertFrameIDRegisterToCanard>
 80023fc:	4601      	mov	r1, r0
 80023fe:	4620      	mov	r0, r4
 8002400:	f7fe f8ec 	bl	80005dc <isFramePriorityHigher>
 8002404:	b170      	cbz	r0, 8002424 <CAN1_TX_IRQHandler+0x9c>
 8002406:	f89d 3006 	ldrb.w	r3, [sp, #6]
 800240a:	2b00      	cmp	r3, #0
 800240c:	d1e5      	bne.n	80023da <CAN1_TX_IRQHandler+0x52>
 800240e:	4b2d      	ldr	r3, [pc, #180]	; (80024c4 <CAN1_TX_IRQHandler+0x13c>)
 8002410:	f8d3 01a0 	ldr.w	r0, [r3, #416]	; 0x1a0
 8002414:	f7fe f8ae 	bl	8000574 <convertFrameIDRegisterToCanard>
 8002418:	4601      	mov	r1, r0
 800241a:	4620      	mov	r0, r4
 800241c:	f7fe f8de 	bl	80005dc <isFramePriorityHigher>
 8002420:	2800      	cmp	r0, #0
 8002422:	d1da      	bne.n	80023da <CAN1_TX_IRQHandler+0x52>
 8002424:	b006      	add	sp, #24
 8002426:	e8bd 81f0 	ldmia.w	sp!, {r4, r5, r6, r7, r8, pc}
 800242a:	689a      	ldr	r2, [r3, #8]
 800242c:	0111      	lsls	r1, r2, #4
 800242e:	d51d      	bpl.n	800246c <CAN1_TX_IRQHandler+0xe4>
 8002430:	4a25      	ldr	r2, [pc, #148]	; (80024c8 <CAN1_TX_IRQHandler+0x140>)
 8002432:	7814      	ldrb	r4, [r2, #0]
 8002434:	b114      	cbz	r4, 800243c <CAN1_TX_IRQHandler+0xb4>
 8002436:	4629      	mov	r1, r5
 8002438:	2001      	movs	r0, #1
 800243a:	e7d0      	b.n	80023de <CAN1_TX_IRQHandler+0x56>
 800243c:	9e02      	ldr	r6, [sp, #8]
 800243e:	af01      	add	r7, sp, #4
 8002440:	4698      	mov	r8, r3
 8002442:	2c01      	cmp	r4, #1
 8002444:	d00e      	beq.n	8002464 <CAN1_TX_IRQHandler+0xdc>
 8002446:	5de3      	ldrb	r3, [r4, r7]
 8002448:	b963      	cbnz	r3, 8002464 <CAN1_TX_IRQHandler+0xdc>
 800244a:	f104 0218 	add.w	r2, r4, #24
 800244e:	0112      	lsls	r2, r2, #4
 8002450:	f858 0002 	ldr.w	r0, [r8, r2]
 8002454:	f7fe f88e 	bl	8000574 <convertFrameIDRegisterToCanard>
 8002458:	4601      	mov	r1, r0
 800245a:	4630      	mov	r0, r6
 800245c:	f7fe f8be 	bl	80005dc <isFramePriorityHigher>
 8002460:	2800      	cmp	r0, #0
 8002462:	d0df      	beq.n	8002424 <CAN1_TX_IRQHandler+0x9c>
 8002464:	3401      	adds	r4, #1
 8002466:	2c03      	cmp	r4, #3
 8002468:	d1eb      	bne.n	8002442 <CAN1_TX_IRQHandler+0xba>
 800246a:	e7e4      	b.n	8002436 <CAN1_TX_IRQHandler+0xae>
 800246c:	689a      	ldr	r2, [r3, #8]
 800246e:	00d2      	lsls	r2, r2, #3
 8002470:	d5d8      	bpl.n	8002424 <CAN1_TX_IRQHandler+0x9c>
 8002472:	4a15      	ldr	r2, [pc, #84]	; (80024c8 <CAN1_TX_IRQHandler+0x140>)
 8002474:	7812      	ldrb	r2, [r2, #0]
 8002476:	b112      	cbz	r2, 800247e <CAN1_TX_IRQHandler+0xf6>
 8002478:	4629      	mov	r1, r5
 800247a:	2002      	movs	r0, #2
 800247c:	e7af      	b.n	80023de <CAN1_TX_IRQHandler+0x56>
 800247e:	f89d 2004 	ldrb.w	r2, [sp, #4]
 8002482:	9c02      	ldr	r4, [sp, #8]
 8002484:	b94a      	cbnz	r2, 800249a <CAN1_TX_IRQHandler+0x112>
 8002486:	f8d3 0180 	ldr.w	r0, [r3, #384]	; 0x180
 800248a:	f7fe f873 	bl	8000574 <convertFrameIDRegisterToCanard>
 800248e:	4601      	mov	r1, r0
 8002490:	4620      	mov	r0, r4
 8002492:	f7fe f8a3 	bl	80005dc <isFramePriorityHigher>
 8002496:	2800      	cmp	r0, #0
 8002498:	d0c4      	beq.n	8002424 <CAN1_TX_IRQHandler+0x9c>
 800249a:	f89d 3005 	ldrb.w	r3, [sp, #5]
 800249e:	2b00      	cmp	r3, #0
 80024a0:	d1ea      	bne.n	8002478 <CAN1_TX_IRQHandler+0xf0>
 80024a2:	4b08      	ldr	r3, [pc, #32]	; (80024c4 <CAN1_TX_IRQHandler+0x13c>)
 80024a4:	f8d3 0190 	ldr.w	r0, [r3, #400]	; 0x190
 80024a8:	f7fe f864 	bl	8000574 <convertFrameIDRegisterToCanard>
 80024ac:	4601      	mov	r1, r0
 80024ae:	4620      	mov	r0, r4
 80024b0:	f7fe f894 	bl	80005dc <isFramePriorityHigher>
 80024b4:	2800      	cmp	r0, #0
 80024b6:	d1df      	bne.n	8002478 <CAN1_TX_IRQHandler+0xf0>
 80024b8:	e7b4      	b.n	8002424 <CAN1_TX_IRQHandler+0x9c>
 80024ba:	bf00      	nop
 80024bc:	200022e4 	andcs	r2, r0, r4, ror #5
 80024c0:	20000a40 	andcs	r0, r0, r0, asr #20
 80024c4:	40006400 	andmi	r6, r0, r0, lsl #8
 80024c8:	20000e44 	andcs	r0, r0, r4, asr #28

080024cc <USART1_IRQHandler>:
 80024cc:	4b1b      	ldr	r3, [pc, #108]	; (800253c <USART1_IRQHandler+0x70>)
 80024ce:	8819      	ldrh	r1, [r3, #0]
 80024d0:	b289      	uxth	r1, r1
 80024d2:	060a      	lsls	r2, r1, #24
 80024d4:	b510      	push	{r4, lr}
 80024d6:	d512      	bpl.n	80024fe <USART1_IRQHandler+0x32>
 80024d8:	4a19      	ldr	r2, [pc, #100]	; (8002540 <USART1_IRQHandler+0x74>)
 80024da:	481a      	ldr	r0, [pc, #104]	; (8002544 <USART1_IRQHandler+0x78>)
 80024dc:	6854      	ldr	r4, [r2, #4]
 80024de:	6840      	ldr	r0, [r0, #4]
 80024e0:	4284      	cmp	r4, r0
 80024e2:	d024      	beq.n	800252e <USART1_IRQHandler+0x62>
 80024e4:	6850      	ldr	r0, [r2, #4]
 80024e6:	4c18      	ldr	r4, [pc, #96]	; (8002548 <USART1_IRQHandler+0x7c>)
 80024e8:	5c20      	ldrb	r0, [r4, r0]
 80024ea:	8098      	strh	r0, [r3, #4]
 80024ec:	6850      	ldr	r0, [r2, #4]
 80024ee:	3001      	adds	r0, #1
 80024f0:	6050      	str	r0, [r2, #4]
 80024f2:	6850      	ldr	r0, [r2, #4]
 80024f4:	f5b0 5f80 	cmp.w	r0, #4096	; 0x1000
 80024f8:	db01      	blt.n	80024fe <USART1_IRQHandler+0x32>
 80024fa:	2000      	movs	r0, #0
 80024fc:	6050      	str	r0, [r2, #4]
 80024fe:	f011 0f28 	tst.w	r1, #40	; 0x28
 8002502:	d013      	beq.n	800252c <USART1_IRQHandler+0x60>
 8002504:	881a      	ldrh	r2, [r3, #0]
 8002506:	4911      	ldr	r1, [pc, #68]	; (800254c <USART1_IRQHandler+0x80>)
 8002508:	f022 0228 	bic.w	r2, r2, #40	; 0x28
 800250c:	0412      	lsls	r2, r2, #16
 800250e:	0c12      	lsrs	r2, r2, #16
 8002510:	801a      	strh	r2, [r3, #0]
 8002512:	8898      	ldrh	r0, [r3, #4]
 8002514:	4b0e      	ldr	r3, [pc, #56]	; (8002550 <USART1_IRQHandler+0x84>)
 8002516:	685a      	ldr	r2, [r3, #4]
 8002518:	5488      	strb	r0, [r1, r2]
 800251a:	685a      	ldr	r2, [r3, #4]
 800251c:	3201      	adds	r2, #1
 800251e:	605a      	str	r2, [r3, #4]
 8002520:	685a      	ldr	r2, [r3, #4]
 8002522:	f5b2 6f80 	cmp.w	r2, #1024	; 0x400
 8002526:	bfa4      	itt	ge
 8002528:	2200      	movge	r2, #0
 800252a:	605a      	strge	r2, [r3, #4]
 800252c:	bd10      	pop	{r4, pc}
 800252e:	899a      	ldrh	r2, [r3, #12]
 8002530:	f022 0280 	bic.w	r2, r2, #128	; 0x80
 8002534:	0412      	lsls	r2, r2, #16
 8002536:	0c12      	lsrs	r2, r2, #16
 8002538:	819a      	strh	r2, [r3, #12]
 800253a:	e7e0      	b.n	80024fe <USART1_IRQHandler+0x32>
 800253c:	40011000 	andmi	r1, r1, r0
 8002540:	2000229c 	mulcs	r0, ip, r2
 8002544:	200022c0 	andcs	r2, r0, r0, asr #5
 8002548:	20001299 	mulcs	r0, r9, r2
 800254c:	20000e45 	andcs	r0, r0, r5, asr #28
 8002550:	2000126c 	andcs	r1, r0, ip, ror #4

08002554 <EXTI15_10_IRQHandler>:
 8002554:	4909      	ldr	r1, [pc, #36]	; (800257c <EXTI15_10_IRQHandler+0x28>)
 8002556:	b570      	push	{r4, r5, r6, lr}
 8002558:	2200      	movs	r2, #0
 800255a:	230a      	movs	r3, #10
 800255c:	2501      	movs	r5, #1
 800255e:	460c      	mov	r4, r1
 8002560:	680e      	ldr	r6, [r1, #0]
 8002562:	fa05 f003 	lsl.w	r0, r5, r3
 8002566:	4206      	tst	r6, r0
 8002568:	d003      	beq.n	8002572 <EXTI15_10_IRQHandler+0x1e>
 800256a:	694e      	ldr	r6, [r1, #20]
 800256c:	4230      	tst	r0, r6
 800256e:	bf18      	it	ne
 8002570:	4302      	orrne	r2, r0
 8002572:	3301      	adds	r3, #1
 8002574:	2b10      	cmp	r3, #16
 8002576:	6162      	str	r2, [r4, #20]
 8002578:	d1f2      	bne.n	8002560 <EXTI15_10_IRQHandler+0xc>
 800257a:	bd70      	pop	{r4, r5, r6, pc}
 800257c:	40013c00 	andmi	r3, r1, r0, lsl #24

08002580 <EXTI9_5_IRQHandler>:
 8002580:	4909      	ldr	r1, [pc, #36]	; (80025a8 <EXTI9_5_IRQHandler+0x28>)
 8002582:	b570      	push	{r4, r5, r6, lr}
 8002584:	2200      	movs	r2, #0
 8002586:	2305      	movs	r3, #5
 8002588:	2501      	movs	r5, #1
 800258a:	460c      	mov	r4, r1
 800258c:	680e      	ldr	r6, [r1, #0]
 800258e:	fa05 f003 	lsl.w	r0, r5, r3
 8002592:	4206      	tst	r6, r0
 8002594:	d003      	beq.n	800259e <EXTI9_5_IRQHandler+0x1e>
 8002596:	694e      	ldr	r6, [r1, #20]
 8002598:	4230      	tst	r0, r6
 800259a:	bf18      	it	ne
 800259c:	4302      	orrne	r2, r0
 800259e:	3301      	adds	r3, #1
 80025a0:	2b0a      	cmp	r3, #10
 80025a2:	6162      	str	r2, [r4, #20]
 80025a4:	d1f2      	bne.n	800258c <EXTI9_5_IRQHandler+0xc>
 80025a6:	bd70      	pop	{r4, r5, r6, pc}
 80025a8:	40013c00 	andmi	r3, r1, r0, lsl #24

080025ac <EXTI4_IRQHandler>:
 80025ac:	4b01      	ldr	r3, [pc, #4]	; (80025b4 <EXTI4_IRQHandler+0x8>)
 80025ae:	2210      	movs	r2, #16
 80025b0:	615a      	str	r2, [r3, #20]
 80025b2:	4770      	bx	lr
 80025b4:	40013c00 	andmi	r3, r1, r0, lsl #24

080025b8 <EXTI3_IRQHandler>:
 80025b8:	4b01      	ldr	r3, [pc, #4]	; (80025c0 <EXTI3_IRQHandler+0x8>)
 80025ba:	2208      	movs	r2, #8
 80025bc:	615a      	str	r2, [r3, #20]
 80025be:	4770      	bx	lr
 80025c0:	40013c00 	andmi	r3, r1, r0, lsl #24

080025c4 <EXTI2_IRQHandler>:
 80025c4:	4b01      	ldr	r3, [pc, #4]	; (80025cc <EXTI2_IRQHandler+0x8>)
 80025c6:	2204      	movs	r2, #4
 80025c8:	615a      	str	r2, [r3, #20]
 80025ca:	4770      	bx	lr
 80025cc:	40013c00 	andmi	r3, r1, r0, lsl #24

080025d0 <EXTI1_IRQHandler>:
 80025d0:	4b01      	ldr	r3, [pc, #4]	; (80025d8 <EXTI1_IRQHandler+0x8>)
 80025d2:	2202      	movs	r2, #2
 80025d4:	615a      	str	r2, [r3, #20]
 80025d6:	4770      	bx	lr
 80025d8:	40013c00 	andmi	r3, r1, r0, lsl #24

080025dc <EXTI0_IRQHandler>:
 80025dc:	4b01      	ldr	r3, [pc, #4]	; (80025e4 <EXTI0_IRQHandler+0x8>)
 80025de:	2201      	movs	r2, #1
 80025e0:	615a      	str	r2, [r3, #20]
 80025e2:	4770      	bx	lr
 80025e4:	40013c00 	andmi	r3, r1, r0, lsl #24

080025e8 <Reset_Handler>:
 80025e8:	b508      	push	{r3, lr}
 80025ea:	4a23      	ldr	r2, [pc, #140]	; (8002678 <Reset_Handler+0x90>)
 80025ec:	4b23      	ldr	r3, [pc, #140]	; (800267c <Reset_Handler+0x94>)
 80025ee:	4924      	ldr	r1, [pc, #144]	; (8002680 <Reset_Handler+0x98>)
 80025f0:	428b      	cmp	r3, r1
 80025f2:	d339      	bcc.n	8002668 <Reset_Handler+0x80>
 80025f4:	4b23      	ldr	r3, [pc, #140]	; (8002684 <Reset_Handler+0x9c>)
 80025f6:	4a24      	ldr	r2, [pc, #144]	; (8002688 <Reset_Handler+0xa0>)
 80025f8:	2100      	movs	r1, #0
 80025fa:	4293      	cmp	r3, r2
 80025fc:	d339      	bcc.n	8002672 <Reset_Handler+0x8a>
 80025fe:	4923      	ldr	r1, [pc, #140]	; (800268c <Reset_Handler+0xa4>)
 8002600:	f8d1 3088 	ldr.w	r3, [r1, #136]	; 0x88
 8002604:	f443 0370 	orr.w	r3, r3, #15728640	; 0xf00000
 8002608:	f8c1 3088 	str.w	r3, [r1, #136]	; 0x88
 800260c:	4b20      	ldr	r3, [pc, #128]	; (8002690 <Reset_Handler+0xa8>)
 800260e:	681a      	ldr	r2, [r3, #0]
 8002610:	2000      	movs	r0, #0
 8002612:	f042 0201 	orr.w	r2, r2, #1
 8002616:	601a      	str	r2, [r3, #0]
 8002618:	6098      	str	r0, [r3, #8]
 800261a:	689a      	ldr	r2, [r3, #8]
 800261c:	f042 5260 	orr.w	r2, r2, #939524096	; 0x38000000
 8002620:	609a      	str	r2, [r3, #8]
 8002622:	681a      	ldr	r2, [r3, #0]
 8002624:	f022 7286 	bic.w	r2, r2, #17563648	; 0x10c0000
 8002628:	f422 3280 	bic.w	r2, r2, #65536	; 0x10000
 800262c:	601a      	str	r2, [r3, #0]
 800262e:	60d8      	str	r0, [r3, #12]
 8002630:	6c1a      	ldr	r2, [r3, #64]	; 0x40
 8002632:	4818      	ldr	r0, [pc, #96]	; (8002694 <Reset_Handler+0xac>)
 8002634:	f042 5280 	orr.w	r2, r2, #268435456	; 0x10000000
 8002638:	641a      	str	r2, [r3, #64]	; 0x40
 800263a:	6802      	ldr	r2, [r0, #0]
 800263c:	f442 4240 	orr.w	r2, r2, #49152	; 0xc000
 8002640:	6002      	str	r2, [r0, #0]
 8002642:	689a      	ldr	r2, [r3, #8]
 8002644:	609a      	str	r2, [r3, #8]
 8002646:	689a      	ldr	r2, [r3, #8]
 8002648:	f442 4260 	orr.w	r2, r2, #57344	; 0xe000
 800264c:	609a      	str	r2, [r3, #8]
 800264e:	689a      	ldr	r2, [r3, #8]
 8002650:	f442 52e0 	orr.w	r2, r2, #7168	; 0x1c00
 8002654:	609a      	str	r2, [r3, #8]
 8002656:	f240 7202 	movw	r2, #1794	; 0x702
 800265a:	f8c3 2400 	str.w	r2, [r3, #1024]	; 0x400
 800265e:	f04f 6300 	mov.w	r3, #134217728	; 0x8000000
 8002662:	608b      	str	r3, [r1, #8]
 8002664:	f7ff f8be 	bl	80017e4 <main>
 8002668:	f852 0b04 	ldr.w	r0, [r2], #4
 800266c:	f843 0b04 	str.w	r0, [r3], #4
 8002670:	e7be      	b.n	80025f0 <Reset_Handler+0x8>
 8002672:	f843 1b04 	str.w	r1, [r3], #4
 8002676:	e7c0      	b.n	80025fa <Reset_Handler+0x12>
 8002678:	08002be4 	stmdaeq	r0, {r2, r5, r6, r7, r8, r9, fp, sp}
 800267c:	20000000 	andcs	r0, r0, r0
 8002680:	20000068 	andcs	r0, r0, r8, rrx
 8002684:	20000068 	andcs	r0, r0, r8, rrx
 8002688:	200022f8 	strdcs	r2, [r0], -r8
 800268c:	e000ed00 	and	lr, r0, r0, lsl #26
 8002690:	40023800 	andmi	r3, r2, r0, lsl #16
 8002694:	40007000 	andmi	r7, r0, r0

08002698 <_sbrk>:
 8002698:	4a0a      	ldr	r2, [pc, #40]	; (80026c4 <_sbrk+0x2c>)
 800269a:	6811      	ldr	r1, [r2, #0]
 800269c:	4603      	mov	r3, r0
 800269e:	b909      	cbnz	r1, 80026a4 <_sbrk+0xc>
 80026a0:	4909      	ldr	r1, [pc, #36]	; (80026c8 <_sbrk+0x30>)
 80026a2:	6011      	str	r1, [r2, #0]
 80026a4:	6810      	ldr	r0, [r2, #0]
 80026a6:	4909      	ldr	r1, [pc, #36]	; (80026cc <_sbrk+0x34>)
 80026a8:	4403      	add	r3, r0
 80026aa:	3307      	adds	r3, #7
 80026ac:	f023 0307 	bic.w	r3, r3, #7
 80026b0:	428b      	cmp	r3, r1
 80026b2:	bf29      	itett	cs
 80026b4:	4b06      	ldrcs	r3, [pc, #24]	; (80026d0 <_sbrk+0x38>)
 80026b6:	6013      	strcc	r3, [r2, #0]
 80026b8:	220c      	movcs	r2, #12
 80026ba:	2000      	movcs	r0, #0
 80026bc:	bf28      	it	cs
 80026be:	601a      	strcs	r2, [r3, #0]
 80026c0:	4770      	bx	lr
 80026c2:	bf00      	nop
 80026c4:	20000e40 	andcs	r0, r0, r0, asr #28
 80026c8:	200022f8 	strdcs	r2, [r0], -r8
 80026cc:	2001fc00 	andcs	pc, r1, r0, lsl #24
 80026d0:	200022f4 	strdcs	r2, [r0], -r4

080026d4 <ADC_IRQHandler>:
 80026d4:	e7fe      	b.n	80026d4 <ADC_IRQHandler>
	...

080026d8 <_free_r>:
 80026d8:	b538      	push	{r3, r4, r5, lr}
 80026da:	4605      	mov	r5, r0
 80026dc:	2900      	cmp	r1, #0
 80026de:	d045      	beq.n	800276c <_free_r+0x94>
 80026e0:	f851 3c04 	ldr.w	r3, [r1, #-4]
 80026e4:	1f0c      	subs	r4, r1, #4
 80026e6:	2b00      	cmp	r3, #0
 80026e8:	bfb8      	it	lt
 80026ea:	18e4      	addlt	r4, r4, r3
 80026ec:	f000 f8ac 	bl	8002848 <__malloc_lock>
 80026f0:	4a1f      	ldr	r2, [pc, #124]	; (8002770 <_free_r+0x98>)
 80026f2:	6813      	ldr	r3, [r2, #0]
 80026f4:	4610      	mov	r0, r2
 80026f6:	b933      	cbnz	r3, 8002706 <_free_r+0x2e>
 80026f8:	6063      	str	r3, [r4, #4]
 80026fa:	6014      	str	r4, [r2, #0]
 80026fc:	4628      	mov	r0, r5
 80026fe:	e8bd 4038 	ldmia.w	sp!, {r3, r4, r5, lr}
 8002702:	f000 b8a2 	b.w	800284a <__malloc_unlock>
 8002706:	42a3      	cmp	r3, r4
 8002708:	d90c      	bls.n	8002724 <_free_r+0x4c>
 800270a:	6821      	ldr	r1, [r4, #0]
 800270c:	1862      	adds	r2, r4, r1
 800270e:	4293      	cmp	r3, r2
 8002710:	bf04      	itt	eq
 8002712:	681a      	ldreq	r2, [r3, #0]
 8002714:	685b      	ldreq	r3, [r3, #4]
 8002716:	6063      	str	r3, [r4, #4]
 8002718:	bf04      	itt	eq
 800271a:	1852      	addeq	r2, r2, r1
 800271c:	6022      	streq	r2, [r4, #0]
 800271e:	6004      	str	r4, [r0, #0]
 8002720:	e7ec      	b.n	80026fc <_free_r+0x24>
 8002722:	4613      	mov	r3, r2
 8002724:	685a      	ldr	r2, [r3, #4]
 8002726:	b10a      	cbz	r2, 800272c <_free_r+0x54>
 8002728:	42a2      	cmp	r2, r4
 800272a:	d9fa      	bls.n	8002722 <_free_r+0x4a>
 800272c:	6819      	ldr	r1, [r3, #0]
 800272e:	1858      	adds	r0, r3, r1
 8002730:	42a0      	cmp	r0, r4
 8002732:	d10b      	bne.n	800274c <_free_r+0x74>
 8002734:	6820      	ldr	r0, [r4, #0]
 8002736:	4401      	add	r1, r0
 8002738:	1858      	adds	r0, r3, r1
 800273a:	4282      	cmp	r2, r0
 800273c:	6019      	str	r1, [r3, #0]
 800273e:	d1dd      	bne.n	80026fc <_free_r+0x24>
 8002740:	6810      	ldr	r0, [r2, #0]
 8002742:	6852      	ldr	r2, [r2, #4]
 8002744:	605a      	str	r2, [r3, #4]
 8002746:	4401      	add	r1, r0
 8002748:	6019      	str	r1, [r3, #0]
 800274a:	e7d7      	b.n	80026fc <_free_r+0x24>
 800274c:	d902      	bls.n	8002754 <_free_r+0x7c>
 800274e:	230c      	movs	r3, #12
 8002750:	602b      	str	r3, [r5, #0]
 8002752:	e7d3      	b.n	80026fc <_free_r+0x24>
 8002754:	6820      	ldr	r0, [r4, #0]
 8002756:	1821      	adds	r1, r4, r0
 8002758:	428a      	cmp	r2, r1
 800275a:	bf04      	itt	eq
 800275c:	6811      	ldreq	r1, [r2, #0]
 800275e:	6852      	ldreq	r2, [r2, #4]
 8002760:	6062      	str	r2, [r4, #4]
 8002762:	bf04      	itt	eq
 8002764:	1809      	addeq	r1, r1, r0
 8002766:	6021      	streq	r1, [r4, #0]
 8002768:	605c      	str	r4, [r3, #4]
 800276a:	e7c7      	b.n	80026fc <_free_r+0x24>
 800276c:	bd38      	pop	{r3, r4, r5, pc}
 800276e:	bf00      	nop
 8002770:	200022ec 	andcs	r2, r0, ip, ror #5

08002774 <_malloc_r>:
 8002774:	b5f8      	push	{r3, r4, r5, r6, r7, lr}
 8002776:	1ccd      	adds	r5, r1, #3
 8002778:	f025 0503 	bic.w	r5, r5, #3
 800277c:	3508      	adds	r5, #8
 800277e:	2d0c      	cmp	r5, #12
 8002780:	bf38      	it	cc
 8002782:	250c      	movcc	r5, #12
 8002784:	2d00      	cmp	r5, #0
 8002786:	4606      	mov	r6, r0
 8002788:	db01      	blt.n	800278e <_malloc_r+0x1a>
 800278a:	42a9      	cmp	r1, r5
 800278c:	d903      	bls.n	8002796 <_malloc_r+0x22>
 800278e:	230c      	movs	r3, #12
 8002790:	6033      	str	r3, [r6, #0]
 8002792:	2000      	movs	r0, #0
 8002794:	bdf8      	pop	{r3, r4, r5, r6, r7, pc}
 8002796:	f000 f857 	bl	8002848 <__malloc_lock>
 800279a:	4921      	ldr	r1, [pc, #132]	; (8002820 <_malloc_r+0xac>)
 800279c:	680a      	ldr	r2, [r1, #0]
 800279e:	4614      	mov	r4, r2
 80027a0:	b99c      	cbnz	r4, 80027ca <_malloc_r+0x56>
 80027a2:	4f20      	ldr	r7, [pc, #128]	; (8002824 <_malloc_r+0xb0>)
 80027a4:	683b      	ldr	r3, [r7, #0]
 80027a6:	b923      	cbnz	r3, 80027b2 <_malloc_r+0x3e>
 80027a8:	4621      	mov	r1, r4
 80027aa:	4630      	mov	r0, r6
 80027ac:	f000 f83c 	bl	8002828 <_sbrk_r>
 80027b0:	6038      	str	r0, [r7, #0]
 80027b2:	4629      	mov	r1, r5
 80027b4:	4630      	mov	r0, r6
 80027b6:	f000 f837 	bl	8002828 <_sbrk_r>
 80027ba:	1c43      	adds	r3, r0, #1
 80027bc:	d123      	bne.n	8002806 <_malloc_r+0x92>
 80027be:	230c      	movs	r3, #12
 80027c0:	6033      	str	r3, [r6, #0]
 80027c2:	4630      	mov	r0, r6
 80027c4:	f000 f841 	bl	800284a <__malloc_unlock>
 80027c8:	e7e3      	b.n	8002792 <_malloc_r+0x1e>
 80027ca:	6823      	ldr	r3, [r4, #0]
 80027cc:	1b5b      	subs	r3, r3, r5
 80027ce:	d417      	bmi.n	8002800 <_malloc_r+0x8c>
 80027d0:	2b0b      	cmp	r3, #11
 80027d2:	d903      	bls.n	80027dc <_malloc_r+0x68>
 80027d4:	6023      	str	r3, [r4, #0]
 80027d6:	441c      	add	r4, r3
 80027d8:	6025      	str	r5, [r4, #0]
 80027da:	e004      	b.n	80027e6 <_malloc_r+0x72>
 80027dc:	6863      	ldr	r3, [r4, #4]
 80027de:	42a2      	cmp	r2, r4
 80027e0:	bf0c      	ite	eq
 80027e2:	600b      	streq	r3, [r1, #0]
 80027e4:	6053      	strne	r3, [r2, #4]
 80027e6:	4630      	mov	r0, r6
 80027e8:	f000 f82f 	bl	800284a <__malloc_unlock>
 80027ec:	f104 000b 	add.w	r0, r4, #11
 80027f0:	1d23      	adds	r3, r4, #4
 80027f2:	f020 0007 	bic.w	r0, r0, #7
 80027f6:	1ac2      	subs	r2, r0, r3
 80027f8:	d0cc      	beq.n	8002794 <_malloc_r+0x20>
 80027fa:	1a1b      	subs	r3, r3, r0
 80027fc:	50a3      	str	r3, [r4, r2]
 80027fe:	e7c9      	b.n	8002794 <_malloc_r+0x20>
 8002800:	4622      	mov	r2, r4
 8002802:	6864      	ldr	r4, [r4, #4]
 8002804:	e7cc      	b.n	80027a0 <_malloc_r+0x2c>
 8002806:	1cc4      	adds	r4, r0, #3
 8002808:	f024 0403 	bic.w	r4, r4, #3
 800280c:	42a0      	cmp	r0, r4
 800280e:	d0e3      	beq.n	80027d8 <_malloc_r+0x64>
 8002810:	1a21      	subs	r1, r4, r0
 8002812:	4630      	mov	r0, r6
 8002814:	f000 f808 	bl	8002828 <_sbrk_r>
 8002818:	3001      	adds	r0, #1
 800281a:	d1dd      	bne.n	80027d8 <_malloc_r+0x64>
 800281c:	e7cf      	b.n	80027be <_malloc_r+0x4a>
 800281e:	bf00      	nop
 8002820:	200022ec 	andcs	r2, r0, ip, ror #5
 8002824:	200022f0 	strdcs	r2, [r0], -r0

08002828 <_sbrk_r>:
 8002828:	b538      	push	{r3, r4, r5, lr}
 800282a:	4c06      	ldr	r4, [pc, #24]	; (8002844 <_sbrk_r+0x1c>)
 800282c:	2300      	movs	r3, #0
 800282e:	4605      	mov	r5, r0
 8002830:	4608      	mov	r0, r1
 8002832:	6023      	str	r3, [r4, #0]
 8002834:	f7ff ff30 	bl	8002698 <_sbrk>
 8002838:	1c43      	adds	r3, r0, #1
 800283a:	d102      	bne.n	8002842 <_sbrk_r+0x1a>
 800283c:	6823      	ldr	r3, [r4, #0]
 800283e:	b103      	cbz	r3, 8002842 <_sbrk_r+0x1a>
 8002840:	602b      	str	r3, [r5, #0]
 8002842:	bd38      	pop	{r3, r4, r5, pc}
 8002844:	200022f4 	strdcs	r2, [r0], -r4

08002848 <__malloc_lock>:
 8002848:	4770      	bx	lr

0800284a <__malloc_unlock>:
 800284a:	4770      	bx	lr

0800284c <malloc>:
 800284c:	4b02      	ldr	r3, [pc, #8]	; (8002858 <malloc+0xc>)
 800284e:	4601      	mov	r1, r0
 8002850:	6818      	ldr	r0, [r3, #0]
 8002852:	f7ff bf8f 	b.w	8002774 <_malloc_r>
 8002856:	bf00      	nop
 8002858:	20000004 	andcs	r0, r0, r4

0800285c <free>:
 800285c:	4b02      	ldr	r3, [pc, #8]	; (8002868 <free+0xc>)
 800285e:	4601      	mov	r1, r0
 8002860:	6818      	ldr	r0, [r3, #0]
 8002862:	f7ff bf39 	b.w	80026d8 <_free_r>
 8002866:	bf00      	nop
 8002868:	20000004 	andcs	r0, r0, r4

0800286c <memcpy>:
 800286c:	440a      	add	r2, r1
 800286e:	4291      	cmp	r1, r2
 8002870:	f100 33ff 	add.w	r3, r0, #4294967295	; 0xffffffff
 8002874:	d100      	bne.n	8002878 <memcpy+0xc>
 8002876:	4770      	bx	lr
 8002878:	b510      	push	{r4, lr}
 800287a:	f811 4b01 	ldrb.w	r4, [r1], #1
 800287e:	f803 4f01 	strb.w	r4, [r3, #1]!
 8002882:	4291      	cmp	r1, r2
 8002884:	d1f9      	bne.n	800287a <memcpy+0xe>
 8002886:	bd10      	pop	{r4, pc}

08002888 <memset>:
 8002888:	4402      	add	r2, r0
 800288a:	4603      	mov	r3, r0
 800288c:	4293      	cmp	r3, r2
 800288e:	d100      	bne.n	8002892 <memset+0xa>
 8002890:	4770      	bx	lr
 8002892:	f803 1b01 	strb.w	r1, [r3], #1
 8002896:	e7f9      	b.n	800288c <memset+0x4>

08002898 <strcmp>:
 8002898:	f810 2b01 	ldrb.w	r2, [r0], #1
 800289c:	f811 3b01 	ldrb.w	r3, [r1], #1
 80028a0:	2a01      	cmp	r2, #1
 80028a2:	bf28      	it	cs
 80028a4:	429a      	cmpcs	r2, r3
 80028a6:	d0f7      	beq.n	8002898 <strcmp>
 80028a8:	1ad0      	subs	r0, r2, r3
 80028aa:	4770      	bx	lr

080028ac <__aeabi_uldivmod>:
 80028ac:	b953      	cbnz	r3, 80028c4 <__aeabi_uldivmod+0x18>
 80028ae:	b94a      	cbnz	r2, 80028c4 <__aeabi_uldivmod+0x18>
 80028b0:	2900      	cmp	r1, #0
 80028b2:	bf08      	it	eq
 80028b4:	2800      	cmpeq	r0, #0
 80028b6:	bf1c      	itt	ne
 80028b8:	f04f 31ff 	movne.w	r1, #4294967295	; 0xffffffff
 80028bc:	f04f 30ff 	movne.w	r0, #4294967295	; 0xffffffff
 80028c0:	f000 b966 	b.w	8002b90 <__aeabi_idiv0>
 80028c4:	f1ad 0c08 	sub.w	ip, sp, #8
 80028c8:	e96d ce04 	strd	ip, lr, [sp, #-16]!
 80028cc:	f000 f806 	bl	80028dc <__udivmoddi4>
 80028d0:	f8dd e004 	ldr.w	lr, [sp, #4]
 80028d4:	e9dd 2302 	ldrd	r2, r3, [sp, #8]
 80028d8:	b004      	add	sp, #16
 80028da:	4770      	bx	lr

080028dc <__udivmoddi4>:
 80028dc:	e92d 4ff0 	stmdb	sp!, {r4, r5, r6, r7, r8, r9, sl, fp, lr}
 80028e0:	9f09      	ldr	r7, [sp, #36]	; 0x24
 80028e2:	4615      	mov	r5, r2
 80028e4:	4604      	mov	r4, r0
 80028e6:	468e      	mov	lr, r1
 80028e8:	461e      	mov	r6, r3
 80028ea:	2b00      	cmp	r3, #0
 80028ec:	f040 80cc 	bne.w	8002a88 <__udivmoddi4+0x1ac>
 80028f0:	428a      	cmp	r2, r1
 80028f2:	fab2 fc82 	clz	ip, r2
 80028f6:	d94c      	bls.n	8002992 <__udivmoddi4+0xb6>
 80028f8:	f1bc 0f00 	cmp.w	ip, #0
 80028fc:	d00b      	beq.n	8002916 <__udivmoddi4+0x3a>
 80028fe:	f1cc 0820 	rsb	r8, ip, #32
 8002902:	fa01 fe0c 	lsl.w	lr, r1, ip
 8002906:	fa20 f808 	lsr.w	r8, r0, r8
 800290a:	fa02 f50c 	lsl.w	r5, r2, ip
 800290e:	ea48 0e0e 	orr.w	lr, r8, lr
 8002912:	fa00 f40c 	lsl.w	r4, r0, ip
 8002916:	ea4f 4915 	mov.w	r9, r5, lsr #16
 800291a:	fa1f f885 	uxth.w	r8, r5
 800291e:	fbbe faf9 	udiv	sl, lr, r9
 8002922:	0c21      	lsrs	r1, r4, #16
 8002924:	fb09 e31a 	mls	r3, r9, sl, lr
 8002928:	fb0a fb08 	mul.w	fp, sl, r8
 800292c:	ea41 4303 	orr.w	r3, r1, r3, lsl #16
 8002930:	459b      	cmp	fp, r3
 8002932:	d92a      	bls.n	800298a <__udivmoddi4+0xae>
 8002934:	18eb      	adds	r3, r5, r3
 8002936:	f10a 30ff 	add.w	r0, sl, #4294967295	; 0xffffffff
 800293a:	d204      	bcs.n	8002946 <__udivmoddi4+0x6a>
 800293c:	459b      	cmp	fp, r3
 800293e:	d902      	bls.n	8002946 <__udivmoddi4+0x6a>
 8002940:	f1aa 0002 	sub.w	r0, sl, #2
 8002944:	442b      	add	r3, r5
 8002946:	eba3 030b 	sub.w	r3, r3, fp
 800294a:	b2a4      	uxth	r4, r4
 800294c:	fbb3 f2f9 	udiv	r2, r3, r9
 8002950:	fb09 3312 	mls	r3, r9, r2, r3
 8002954:	fb02 f808 	mul.w	r8, r2, r8
 8002958:	ea44 4403 	orr.w	r4, r4, r3, lsl #16
 800295c:	45a0      	cmp	r8, r4
 800295e:	d916      	bls.n	800298e <__udivmoddi4+0xb2>
 8002960:	192c      	adds	r4, r5, r4
 8002962:	f102 33ff 	add.w	r3, r2, #4294967295	; 0xffffffff
 8002966:	d203      	bcs.n	8002970 <__udivmoddi4+0x94>
 8002968:	45a0      	cmp	r8, r4
 800296a:	d901      	bls.n	8002970 <__udivmoddi4+0x94>
 800296c:	1e93      	subs	r3, r2, #2
 800296e:	442c      	add	r4, r5
 8002970:	eba4 0408 	sub.w	r4, r4, r8
 8002974:	ea43 4000 	orr.w	r0, r3, r0, lsl #16
 8002978:	b127      	cbz	r7, 8002984 <__udivmoddi4+0xa8>
 800297a:	fa24 f40c 	lsr.w	r4, r4, ip
 800297e:	2300      	movs	r3, #0
 8002980:	603c      	str	r4, [r7, #0]
 8002982:	607b      	str	r3, [r7, #4]
 8002984:	4631      	mov	r1, r6
 8002986:	e8bd 8ff0 	ldmia.w	sp!, {r4, r5, r6, r7, r8, r9, sl, fp, pc}
 800298a:	4650      	mov	r0, sl
 800298c:	e7db      	b.n	8002946 <__udivmoddi4+0x6a>
 800298e:	4613      	mov	r3, r2
 8002990:	e7ee      	b.n	8002970 <__udivmoddi4+0x94>
 8002992:	b902      	cbnz	r2, 8002996 <__udivmoddi4+0xba>
 8002994:	deff      	udf	#255	; 0xff
 8002996:	f1bc 0f00 	cmp.w	ip, #0
 800299a:	d12e      	bne.n	80029fa <__udivmoddi4+0x11e>
 800299c:	1a8b      	subs	r3, r1, r2
 800299e:	2601      	movs	r6, #1
 80029a0:	ea4f 4e15 	mov.w	lr, r5, lsr #16
 80029a4:	b2aa      	uxth	r2, r5
 80029a6:	fbb3 f8fe 	udiv	r8, r3, lr
 80029aa:	0c21      	lsrs	r1, r4, #16
 80029ac:	fb0e 3318 	mls	r3, lr, r8, r3
 80029b0:	fb08 f902 	mul.w	r9, r8, r2
 80029b4:	ea41 4303 	orr.w	r3, r1, r3, lsl #16
 80029b8:	4599      	cmp	r9, r3
 80029ba:	d961      	bls.n	8002a80 <__udivmoddi4+0x1a4>
 80029bc:	18eb      	adds	r3, r5, r3
 80029be:	f108 30ff 	add.w	r0, r8, #4294967295	; 0xffffffff
 80029c2:	d204      	bcs.n	80029ce <__udivmoddi4+0xf2>
 80029c4:	4599      	cmp	r9, r3
 80029c6:	d902      	bls.n	80029ce <__udivmoddi4+0xf2>
 80029c8:	f1a8 0002 	sub.w	r0, r8, #2
 80029cc:	442b      	add	r3, r5
 80029ce:	eba3 0309 	sub.w	r3, r3, r9
 80029d2:	b2a4      	uxth	r4, r4
 80029d4:	fbb3 f1fe 	udiv	r1, r3, lr
 80029d8:	fb0e 3311 	mls	r3, lr, r1, r3
 80029dc:	434a      	muls	r2, r1
 80029de:	ea44 4403 	orr.w	r4, r4, r3, lsl #16
 80029e2:	42a2      	cmp	r2, r4
 80029e4:	d94e      	bls.n	8002a84 <__udivmoddi4+0x1a8>
 80029e6:	192c      	adds	r4, r5, r4
 80029e8:	f101 33ff 	add.w	r3, r1, #4294967295	; 0xffffffff
 80029ec:	d203      	bcs.n	80029f6 <__udivmoddi4+0x11a>
 80029ee:	42a2      	cmp	r2, r4
 80029f0:	d901      	bls.n	80029f6 <__udivmoddi4+0x11a>
 80029f2:	1e8b      	subs	r3, r1, #2
 80029f4:	442c      	add	r4, r5
 80029f6:	1aa4      	subs	r4, r4, r2
 80029f8:	e7bc      	b.n	8002974 <__udivmoddi4+0x98>
 80029fa:	f1cc 0e20 	rsb	lr, ip, #32
 80029fe:	fa02 f50c 	lsl.w	r5, r2, ip
 8002a02:	fa21 f90e 	lsr.w	r9, r1, lr
 8002a06:	fa01 f30c 	lsl.w	r3, r1, ip
 8002a0a:	fa20 fe0e 	lsr.w	lr, r0, lr
 8002a0e:	ea4e 0303 	orr.w	r3, lr, r3
 8002a12:	ea4f 4815 	mov.w	r8, r5, lsr #16
 8002a16:	fa00 f40c 	lsl.w	r4, r0, ip
 8002a1a:	fbb9 f1f8 	udiv	r1, r9, r8
 8002a1e:	fa1f fe85 	uxth.w	lr, r5
 8002a22:	fb08 9211 	mls	r2, r8, r1, r9
 8002a26:	0c18      	lsrs	r0, r3, #16
 8002a28:	fb01 f60e 	mul.w	r6, r1, lr
 8002a2c:	ea40 4202 	orr.w	r2, r0, r2, lsl #16
 8002a30:	4296      	cmp	r6, r2
 8002a32:	d921      	bls.n	8002a78 <__udivmoddi4+0x19c>
 8002a34:	18aa      	adds	r2, r5, r2
 8002a36:	f101 30ff 	add.w	r0, r1, #4294967295	; 0xffffffff
 8002a3a:	d203      	bcs.n	8002a44 <__udivmoddi4+0x168>
 8002a3c:	4296      	cmp	r6, r2
 8002a3e:	d901      	bls.n	8002a44 <__udivmoddi4+0x168>
 8002a40:	1e88      	subs	r0, r1, #2
 8002a42:	442a      	add	r2, r5
 8002a44:	1b92      	subs	r2, r2, r6
 8002a46:	b29b      	uxth	r3, r3
 8002a48:	fbb2 f9f8 	udiv	r9, r2, r8
 8002a4c:	fb08 2219 	mls	r2, r8, r9, r2
 8002a50:	fb09 fe0e 	mul.w	lr, r9, lr
 8002a54:	ea43 4302 	orr.w	r3, r3, r2, lsl #16
 8002a58:	459e      	cmp	lr, r3
 8002a5a:	d90f      	bls.n	8002a7c <__udivmoddi4+0x1a0>
 8002a5c:	18eb      	adds	r3, r5, r3
 8002a5e:	f109 36ff 	add.w	r6, r9, #4294967295	; 0xffffffff
 8002a62:	d204      	bcs.n	8002a6e <__udivmoddi4+0x192>
 8002a64:	459e      	cmp	lr, r3
 8002a66:	d902      	bls.n	8002a6e <__udivmoddi4+0x192>
 8002a68:	f1a9 0602 	sub.w	r6, r9, #2
 8002a6c:	442b      	add	r3, r5
 8002a6e:	eba3 030e 	sub.w	r3, r3, lr
 8002a72:	ea46 4600 	orr.w	r6, r6, r0, lsl #16
 8002a76:	e793      	b.n	80029a0 <__udivmoddi4+0xc4>
 8002a78:	4608      	mov	r0, r1
 8002a7a:	e7e3      	b.n	8002a44 <__udivmoddi4+0x168>
 8002a7c:	464e      	mov	r6, r9
 8002a7e:	e7f6      	b.n	8002a6e <__udivmoddi4+0x192>
 8002a80:	4640      	mov	r0, r8
 8002a82:	e7a4      	b.n	80029ce <__udivmoddi4+0xf2>
 8002a84:	460b      	mov	r3, r1
 8002a86:	e7b6      	b.n	80029f6 <__udivmoddi4+0x11a>
 8002a88:	428b      	cmp	r3, r1
 8002a8a:	d905      	bls.n	8002a98 <__udivmoddi4+0x1bc>
 8002a8c:	b10f      	cbz	r7, 8002a92 <__udivmoddi4+0x1b6>
 8002a8e:	e9c7 0100 	strd	r0, r1, [r7]
 8002a92:	2600      	movs	r6, #0
 8002a94:	4630      	mov	r0, r6
 8002a96:	e775      	b.n	8002984 <__udivmoddi4+0xa8>
 8002a98:	fab3 fc83 	clz	ip, r3
 8002a9c:	f1bc 0f00 	cmp.w	ip, #0
 8002aa0:	d10f      	bne.n	8002ac2 <__udivmoddi4+0x1e6>
 8002aa2:	428b      	cmp	r3, r1
 8002aa4:	d301      	bcc.n	8002aaa <__udivmoddi4+0x1ce>
 8002aa6:	4282      	cmp	r2, r0
 8002aa8:	d809      	bhi.n	8002abe <__udivmoddi4+0x1e2>
 8002aaa:	1a84      	subs	r4, r0, r2
 8002aac:	eb61 0e03 	sbc.w	lr, r1, r3
 8002ab0:	2001      	movs	r0, #1
 8002ab2:	2f00      	cmp	r7, #0
 8002ab4:	d06a      	beq.n	8002b8c <__udivmoddi4+0x2b0>
 8002ab6:	e9c7 4e00 	strd	r4, lr, [r7]
 8002aba:	2600      	movs	r6, #0
 8002abc:	e762      	b.n	8002984 <__udivmoddi4+0xa8>
 8002abe:	4660      	mov	r0, ip
 8002ac0:	e7f7      	b.n	8002ab2 <__udivmoddi4+0x1d6>
 8002ac2:	f1cc 0e20 	rsb	lr, ip, #32
 8002ac6:	fa03 f30c 	lsl.w	r3, r3, ip
 8002aca:	fa22 f50e 	lsr.w	r5, r2, lr
 8002ace:	fa21 f40e 	lsr.w	r4, r1, lr
 8002ad2:	431d      	orrs	r5, r3
 8002ad4:	fa01 f30c 	lsl.w	r3, r1, ip
 8002ad8:	fa20 f10e 	lsr.w	r1, r0, lr
 8002adc:	430b      	orrs	r3, r1
 8002ade:	ea4f 4a15 	mov.w	sl, r5, lsr #16
 8002ae2:	fa00 f60c 	lsl.w	r6, r0, ip
 8002ae6:	fbb4 f9fa 	udiv	r9, r4, sl
 8002aea:	fa1f f885 	uxth.w	r8, r5
 8002aee:	fb0a 4019 	mls	r0, sl, r9, r4
 8002af2:	0c1c      	lsrs	r4, r3, #16
 8002af4:	fb09 f108 	mul.w	r1, r9, r8
 8002af8:	ea44 4400 	orr.w	r4, r4, r0, lsl #16
 8002afc:	42a1      	cmp	r1, r4
 8002afe:	fa02 f20c 	lsl.w	r2, r2, ip
 8002b02:	d93f      	bls.n	8002b84 <__udivmoddi4+0x2a8>
 8002b04:	192c      	adds	r4, r5, r4
 8002b06:	f109 30ff 	add.w	r0, r9, #4294967295	; 0xffffffff
 8002b0a:	d204      	bcs.n	8002b16 <__udivmoddi4+0x23a>
 8002b0c:	42a1      	cmp	r1, r4
 8002b0e:	d902      	bls.n	8002b16 <__udivmoddi4+0x23a>
 8002b10:	f1a9 0002 	sub.w	r0, r9, #2
 8002b14:	442c      	add	r4, r5
 8002b16:	1a64      	subs	r4, r4, r1
 8002b18:	b29b      	uxth	r3, r3
 8002b1a:	fbb4 f9fa 	udiv	r9, r4, sl
 8002b1e:	fb0a 4419 	mls	r4, sl, r9, r4
 8002b22:	fb09 f808 	mul.w	r8, r9, r8
 8002b26:	ea43 4104 	orr.w	r1, r3, r4, lsl #16
 8002b2a:	4588      	cmp	r8, r1
 8002b2c:	d92c      	bls.n	8002b88 <__udivmoddi4+0x2ac>
 8002b2e:	1869      	adds	r1, r5, r1
 8002b30:	f109 33ff 	add.w	r3, r9, #4294967295	; 0xffffffff
 8002b34:	d204      	bcs.n	8002b40 <__udivmoddi4+0x264>
 8002b36:	4588      	cmp	r8, r1
 8002b38:	d902      	bls.n	8002b40 <__udivmoddi4+0x264>
 8002b3a:	f1a9 0302 	sub.w	r3, r9, #2
 8002b3e:	4429      	add	r1, r5
 8002b40:	ea43 4000 	orr.w	r0, r3, r0, lsl #16
 8002b44:	eba1 0108 	sub.w	r1, r1, r8
 8002b48:	fba0 8902 	umull	r8, r9, r0, r2
 8002b4c:	4549      	cmp	r1, r9
 8002b4e:	46c2      	mov	sl, r8
 8002b50:	464c      	mov	r4, r9
 8002b52:	d302      	bcc.n	8002b5a <__udivmoddi4+0x27e>
 8002b54:	d106      	bne.n	8002b64 <__udivmoddi4+0x288>
 8002b56:	4546      	cmp	r6, r8
 8002b58:	d204      	bcs.n	8002b64 <__udivmoddi4+0x288>
 8002b5a:	ebb8 0a02 	subs.w	sl, r8, r2
 8002b5e:	eb69 0405 	sbc.w	r4, r9, r5
 8002b62:	3801      	subs	r0, #1
 8002b64:	b197      	cbz	r7, 8002b8c <__udivmoddi4+0x2b0>
 8002b66:	ebb6 030a 	subs.w	r3, r6, sl
 8002b6a:	eb61 0604 	sbc.w	r6, r1, r4
 8002b6e:	fa06 fe0e 	lsl.w	lr, r6, lr
 8002b72:	fa23 f30c 	lsr.w	r3, r3, ip
 8002b76:	ea4e 0303 	orr.w	r3, lr, r3
 8002b7a:	fa26 f60c 	lsr.w	r6, r6, ip
 8002b7e:	e9c7 3600 	strd	r3, r6, [r7]
 8002b82:	e79a      	b.n	8002aba <__udivmoddi4+0x1de>
 8002b84:	4648      	mov	r0, r9
 8002b86:	e7c6      	b.n	8002b16 <__udivmoddi4+0x23a>
 8002b88:	464b      	mov	r3, r9
 8002b8a:	e7d9      	b.n	8002b40 <__udivmoddi4+0x264>
 8002b8c:	463e      	mov	r6, r7
 8002b8e:	e6f9      	b.n	8002984 <__udivmoddi4+0xa8>

08002b90 <__aeabi_idiv0>:
 8002b90:	4770      	bx	lr
 8002b92:	bf00      	nop

Disassembly of section .ARM.exidx:

08002b94 <__exidx_end-0x8>:
 8002b94:	7ffffd48 	svcvc	0x00fffd48
 8002b98:	00000001 	andeq	r0, r0, r1

Disassembly of section .rodata:

08002b9c <CSWTCH.0.lto_priv.63>:
 8002b9c:	40020000 	andmi	r0, r2, r0
 8002ba0:	40020400 	andmi	r0, r2, r0, lsl #8
 8002ba4:	40020800 	andmi	r0, r2, r0, lsl #16
 8002ba8:	40020c00 	andmi	r0, r2, r0, lsl #24
 8002bac:	40021000 	andmi	r1, r2, r0
 8002bb0:	40021400 	andmi	r1, r2, r0, lsl #8
 8002bb4:	40021800 	andmi	r1, r2, r0, lsl #16
 8002bb8:	40021c00 	andmi	r1, r2, r0, lsl #24
 8002bbc:	40022000 	andmi	r2, r2, r0
 8002bc0:	40022400 	andmi	r2, r2, r0, lsl #8
 8002bc4:	40022800 	andmi	r2, r2, r0, lsl #16

08002bc8 <_canard_id>:
 8002bc8:	ffffffff 			; <UNDEFINED> instruction: 0xffffffff
 8002bcc:	69617262 	stmdbvs	r1!, {r1, r5, r6, r9, ip, sp, lr}^
 8002bd0:	30325f6e 	eorscc	r5, r2, lr, ror #30
 8002bd4:	6c5f3931 	mrrcvs	9, 3, r3, pc, cr1	; <UNPREDICTABLE>
 8002bd8:	6564616f 	strbvs	r6, [r4, #-367]!	; 0xfffffe91
 8002bdc:	44490072 	strbmi	r0, [r9], #-114	; 0xffffff8e
 8002be0:	00000000 	andeq	r0, r0, r0

Disassembly of section .data:

20000000 <_sdata>:
20000000:	00000001 	andeq	r0, r0, r1

20000004 <_impure_ptr>:
20000004:	20000008 	andcs	r0, r0, r8

20000008 <impure_data>:
	...

Disassembly of section .bss:

20000068 <_sbss>:
	...

2000008c <_canard_memory_pool>:
	...

2000048c <_health>:
	...

2000048d <_internal_buffer>:
	...

20000608 <_last_activity_us>:
	...

20000610 <_last_timer_ticks>:
20000610:	00000000 	andeq	r0, r0, r0

20000614 <_mode.lto_priv.60>:
20000614:	00000000 	andeq	r0, r0, r0

20000618 <_next_1hz_service_at>:
	...

20000620 <_offset>:
	...

20000628 <_read_transfer_id>:
	...

20000629 <_src_node_id>:
20000629:	00000000 	andeq	r0, r0, r0
2000062d:	 	andeq	r0, r0, r0

20000630 <_timestamp_us.lto_priv.61>:
	...

20000638 <_timestamp_us.lto_priv.62>:
	...

20000640 <can_rx_buffer>:
	...

20000a40 <can_tx_buffer>:
	...

20000e40 <heap>:
20000e40:	00000000 	andeq	r0, r0, r0

20000e44 <is_empty.8677>:
	...

20000e45 <rx_buffer_1>:
	...

20001248 <rx_buffer_read>:
	...

2000126c <rx_buffer_write>:
	...

20001290 <rx_index_read>:
20001290:	00000000 	andeq	r0, r0, r0

20001294 <rx_index_write>:
20001294:	00000000 	andeq	r0, r0, r0

20001298 <transfer_id.8575>:
	...

20001299 <tx_buffer_1>:
	...

2000229c <tx_buffer_read>:
	...

200022c0 <tx_buffer_write>:
	...

200022e4 <tx_index_read>:
200022e4:	00000000 	andeq	r0, r0, r0

200022e8 <tx_index_write>:
200022e8:	00000000 	andeq	r0, r0, r0

200022ec <__malloc_free_list>:
200022ec:	00000000 	andeq	r0, r0, r0

200022f0 <__malloc_sbrk_start>:
200022f0:	00000000 	andeq	r0, r0, r0

200022f4 <errno>:
200022f4:	00000000 	andeq	r0, r0, r0

Disassembly of section ._usrstack:

200022f8 <_susrstack>:
	...

Disassembly of section .comment:

00000000 <.comment>:
   0:	3a434347 	bcc	10d0d24 <__Stack_Size+0x10d0924>
   4:	72412820 	subvc	r2, r1, #32, 16	; 0x200000
   8:	52206863 	eorpl	r6, r0, #6488064	; 0x630000
   c:	736f7065 	cmnvc	pc, #101	; 0x65
  10:	726f7469 	rsbvc	r7, pc, #1761607680	; 0x69000000
  14:	38202979 	stmdacc	r0!, {r0, r3, r4, r5, r6, r8, fp, sp}
  18:	302e332e 	eorcc	r3, lr, lr, lsr #6
	...

Disassembly of section .ARM.attributes:

00000000 <.ARM.attributes>:
   0:	00003141 	andeq	r3, r0, r1, asr #2
   4:	61656100 	cmnvs	r5, r0, lsl #2
   8:	01006962 	tsteq	r0, r2, ror #18
   c:	00000027 	andeq	r0, r0, r7, lsr #32
  10:	2d453705 	stclcs	7, cr3, [r5, #-20]	; 0xffffffec
  14:	0d06004d 	stceq	0, cr0, [r6, #-308]	; 0xfffffecc
  18:	02094d07 	andeq	r4, r9, #448	; 0x1c0
  1c:	0412060a 	ldreq	r0, [r2], #-1546	; 0xfffff9f6
  20:	01150114 	tsteq	r5, r4, lsl r1
  24:	01180317 	tsteq	r8, r7, lsl r3
  28:	011b011a 	tsteq	fp, sl, lsl r1
  2c:	041e011c 	ldreq	r0, [lr], #-284	; 0xfffffee4
  30:	Address 0x0000000000000030 is out of bounds.


Disassembly of section .debug_frame:

00000000 <.debug_frame>:
   0:	0000000c 	andeq	r0, r0, ip
   4:	ffffffff 			; <UNDEFINED> instruction: 0xffffffff
   8:	7c020001 	stcvc	0, cr0, [r2], {1}
   c:	000d0c0e 	andeq	r0, sp, lr, lsl #24
  10:	00000020 	andeq	r0, r0, r0, lsr #32
	...
  1c:	0000001a 	andeq	r0, r0, sl, lsl r0
  20:	83100e41 	tsthi	r0, #1040	; 0x410
  24:	85038404 	strhi	r8, [r3, #-1028]	; 0xfffffbfc
  28:	4a018e02 	bmi	63838 <__Stack_Size+0x63438>
  2c:	c3c4c5ce 	bicgt	ip, r4, #864026624	; 0x33800000
  30:	0000000e 	andeq	r0, r0, lr
  34:	00000024 	andeq	r0, r0, r4, lsr #32
	...
  40:	000000b8 	strheq	r0, [r0], -r8
  44:	84100e44 	ldrhi	r0, [r0], #-3652	; 0xfffff1bc
  48:	86038504 	strhi	r8, [r3], -r4, lsl #10
  4c:	7f018e02 	svcvc	0x00018e02
  50:	c5c6ce0a 	strbgt	ip, [r6, #3594]	; 0xe0a
  54:	42000ec4 	andmi	r0, r0, #196, 28	; 0xc40
  58:	0000000b 	andeq	r0, r0, fp
  5c:	0000000c 	andeq	r0, r0, ip
  60:	ffffffff 			; <UNDEFINED> instruction: 0xffffffff
  64:	7c020001 	stcvc	0, cr0, [r2], {1}
  68:	000d0c0e 	andeq	r0, sp, lr, lsl #24
  6c:	00000024 	andeq	r0, r0, r4, lsr #32
  70:	0000005c 	andeq	r0, r0, ip, asr r0
  74:	080026d8 	stmdaeq	r0, {r3, r4, r6, r7, r9, sl, sp}
  78:	0000009c 	muleq	r0, ip, r0
  7c:	83100e41 	tsthi	r0, #1040	; 0x410
  80:	85038404 	strhi	r8, [r3, #-1028]	; 0xfffffbfc
  84:	54018e02 	strpl	r8, [r1], #-3586	; 0xfffff1fe
  88:	c4c5ce0a 	strbgt	ip, [r5], #3594	; 0xe0a
  8c:	42000ec3 	andmi	r0, r0, #3120	; 0xc30
  90:	0000000b 	andeq	r0, r0, fp
  94:	0000000c 	andeq	r0, r0, ip
  98:	ffffffff 			; <UNDEFINED> instruction: 0xffffffff
  9c:	7c020001 	stcvc	0, cr0, [r2], {1}
  a0:	000d0c0e 	andeq	r0, sp, lr, lsl #24
  a4:	0000001c 	andeq	r0, r0, ip, lsl r0
  a8:	00000094 	muleq	r0, r4, r0
  ac:	08002774 	stmdaeq	r0, {r2, r4, r5, r6, r8, r9, sl, sp}
  b0:	000000b4 	strheq	r0, [r0], -r4
  b4:	83180e41 	tsthi	r8, #1040	; 0x410
  b8:	85058406 	strhi	r8, [r5, #-1030]	; 0xfffffbfa
  bc:	87038604 	strhi	r8, [r3, -r4, lsl #12]
  c0:	00018e02 	andeq	r8, r1, r2, lsl #28
  c4:	0000000c 	andeq	r0, r0, ip
  c8:	ffffffff 			; <UNDEFINED> instruction: 0xffffffff
  cc:	7c020001 	stcvc	0, cr0, [r2], {1}
  d0:	000d0c0e 	andeq	r0, sp, lr, lsl #24
  d4:	00000018 	andeq	r0, r0, r8, lsl r0
  d8:	000000c4 	andeq	r0, r0, r4, asr #1
  dc:	08002828 	stmdaeq	r0, {r3, r5, fp, sp}
  e0:	00000020 	andeq	r0, r0, r0, lsr #32
  e4:	83100e41 	tsthi	r0, #1040	; 0x410
  e8:	85038404 	strhi	r8, [r3, #-1028]	; 0xfffffbfc
  ec:	00018e02 	andeq	r8, r1, r2, lsl #28
  f0:	0000000c 	andeq	r0, r0, ip
  f4:	ffffffff 			; <UNDEFINED> instruction: 0xffffffff
  f8:	7c020001 	stcvc	0, cr0, [r2], {1}
  fc:	000d0c0e 	andeq	r0, sp, lr, lsl #24
 100:	0000000c 	andeq	r0, r0, ip
 104:	000000f0 	strdeq	r0, [r0], -r0	; <UNPREDICTABLE>
 108:	08002848 	stmdaeq	r0, {r3, r6, fp, sp}
 10c:	00000002 	andeq	r0, r0, r2
 110:	0000000c 	andeq	r0, r0, ip
 114:	000000f0 	strdeq	r0, [r0], -r0	; <UNPREDICTABLE>
 118:	0800284a 	stmdaeq	r0, {r1, r3, r6, fp, sp}
 11c:	00000002 	andeq	r0, r0, r2
 120:	0000000c 	andeq	r0, r0, ip
 124:	ffffffff 			; <UNDEFINED> instruction: 0xffffffff
 128:	7c020001 	stcvc	0, cr0, [r2], {1}
 12c:	000d0c0e 	andeq	r0, sp, lr, lsl #24
 130:	0000000c 	andeq	r0, r0, ip
 134:	00000120 	andeq	r0, r0, r0, lsr #2
 138:	0800284c 	stmdaeq	r0, {r2, r3, r6, fp, sp}
 13c:	00000010 	andeq	r0, r0, r0, lsl r0
 140:	0000000c 	andeq	r0, r0, ip
 144:	00000120 	andeq	r0, r0, r0, lsr #2
 148:	0800285c 	stmdaeq	r0, {r2, r3, r4, r6, fp, sp}
 14c:	00000010 	andeq	r0, r0, r0, lsl r0
 150:	0000000c 	andeq	r0, r0, ip
 154:	ffffffff 			; <UNDEFINED> instruction: 0xffffffff
 158:	7c020001 	stcvc	0, cr0, [r2], {1}
 15c:	000d0c0e 	andeq	r0, sp, lr, lsl #24
 160:	00000014 	andeq	r0, r0, r4, lsl r0
 164:	00000150 	andeq	r0, r0, r0, asr r1
 168:	0800286c 	stmdaeq	r0, {r2, r3, r5, r6, fp, sp}
 16c:	0000001c 	andeq	r0, r0, ip, lsl r0
 170:	84080e47 	strhi	r0, [r8], #-3655	; 0xfffff1b9
 174:	00018e02 	andeq	r8, r1, r2, lsl #28
 178:	0000000c 	andeq	r0, r0, ip
 17c:	ffffffff 			; <UNDEFINED> instruction: 0xffffffff
 180:	7c020001 	stcvc	0, cr0, [r2], {1}
 184:	000d0c0e 	andeq	r0, sp, lr, lsl #24
 188:	0000000c 	andeq	r0, r0, ip
 18c:	00000178 	andeq	r0, r0, r8, ror r1
 190:	08002888 	stmdaeq	r0, {r3, r7, fp, sp}
 194:	00000010 	andeq	r0, r0, r0, lsl r0
 198:	0000000c 	andeq	r0, r0, ip
 19c:	ffffffff 			; <UNDEFINED> instruction: 0xffffffff
 1a0:	7c020001 	stcvc	0, cr0, [r2], {1}
 1a4:	000d0c0e 	andeq	r0, sp, lr, lsl #24
 1a8:	0000000c 	andeq	r0, r0, ip
 1ac:	00000198 	muleq	r0, r8, r1
 1b0:	08002898 	stmdaeq	r0, {r3, r4, r7, fp, sp}
 1b4:	00000014 	andeq	r0, r0, r4, lsl r0
 1b8:	0000000c 	andeq	r0, r0, ip
 1bc:	ffffffff 			; <UNDEFINED> instruction: 0xffffffff
 1c0:	7c020001 	stcvc	0, cr0, [r2], {1}
 1c4:	000d0c0e 	andeq	r0, sp, lr, lsl #24
 1c8:	00000018 	andeq	r0, r0, r8, lsl r0
 1cc:	000001b8 			; <UNDEFINED> instruction: 0x000001b8
 1d0:	080028ac 	stmdaeq	r0, {r2, r3, r5, r7, fp, sp}
 1d4:	00000030 	andeq	r0, r0, r0, lsr r0
 1d8:	8e100e50 	mrchi	14, 0, r0, cr0, cr0, {2}
 1dc:	0ece4703 	cdpeq	7, 12, cr4, cr14, cr3, {0}
 1e0:	00000010 	andeq	r0, r0, r0, lsl r0
 1e4:	0000000c 	andeq	r0, r0, ip
 1e8:	ffffffff 			; <UNDEFINED> instruction: 0xffffffff
 1ec:	7c020001 	stcvc	0, cr0, [r2], {1}
 1f0:	000d0c0e 	andeq	r0, sp, lr, lsl #24
 1f4:	00000024 	andeq	r0, r0, r4, lsr #32
 1f8:	000001e4 	andeq	r0, r0, r4, ror #3
 1fc:	080028dc 	stmdaeq	r0, {r2, r3, r4, r6, r7, fp, sp}
 200:	000002b4 			; <UNDEFINED> instruction: 0x000002b4
 204:	84240e42 	strthi	r0, [r4], #-3650	; 0xfffff1be
 208:	86088509 	strhi	r8, [r8], -r9, lsl #10
 20c:	88068707 	stmdahi	r6, {r0, r1, r2, r8, r9, sl, pc}
 210:	8a048905 	bhi	12262c <__Stack_Size+0x12222c>
 214:	8e028b03 	vmlahi.f64	d8, d2, d3
 218:	00000001 	andeq	r0, r0, r1
